(dp1
S'responses'
p2
(lp3
(lp4
I-1
aF2.6486330032348633
aS'right'
p5
aa(lp6
I-1
aF16.511620044708252
aS'left'
p7
aa(lp8
I-1
aF24.902069091796875
aS'right'
p9
aa(lp10
I-1
aF28.539520025253296
aS'left'
p11
aa(lp12
I0
aF1.1779770851135254
aS'right'
p13
aa(lp14
I0
aF4.2137820720672607
aS'left'
p15
aa(lp16
I0
aF6.3824779987335205
aS'right'
p17
aa(lp18
I0
aF12.237750053405762
aS'left'
p19
aa(lp20
I0
aF20.962044954299927
aS'right'
p21
aa(lp22
I0
aF34.37418007850647
aS'left'
p23
aa(lp24
I0
aF44.700082063674927
aS'right'
p25
aa(lp26
I0
aF58.462489128112793
aS'left'
p27
aa(lp28
I0
aF69.572023153305054
aS'right'
p29
aa(lp30
I0
aF78.230812072753906
aS'left'
p31
aa(lp32
I0
aF86.888232946395874
aS'right'
p33
aa(lp34
I0
aF96.613073110580444
aS'left'
p35
aa(lp36
I0
aF110.87656593322754
aS'right'
p37
aas.