(dp1
S'responses'
p2
(lp3
(lp4
I0
aF2.4340620040893555
aS'left'
p5
aa(lp6
I0
aF4.9360439777374268
aS'right'
p7
aa(lp8
I0
aF5.9529659748077393
aS'left'
p9
aa(lp10
I0
aF14.277002096176147
aS'left'
p11
aa(lp12
I0
aF20.132439136505127
aS'right'
p13
aa(lp14
I0
aF26.071437120437622
aS'left'
p15
aa(lp16
I0
aF31.643351078033447
aS'right'
p17
aa(lp18
I0
aF38.965993165969849
aS'left'
p19
aa(lp20
I0
aF48.858725070953369
aS'right'
p21
aa(lp22
I0
aF51.477513074874878
aS'left'
p23
aa(lp24
I0
aF56.965682983398438
aS'right'
p25
aa(lp26
I0
aF62.671030044555664
aS'left'
p27
aa(lp28
I0
aF64.972742080688477
aS'right'
p29
aa(lp30
I0
aF67.708355188369751
aS'left'
p31
aa(lp32
I0
aF73.547399997711182
aS'left'
p33
aa(lp34
I0
aF79.936869144439697
aS'right'
p35
aa(lp36
I0
aF84.490113019943237
aS'left'
p37
aa(lp38
I0
aF89.027562141418457
aS'right'
p39
aa(lp40
I0
aF94.632550001144409
aS'left'
p41
aa(lp42
I0
aF100.75433707237244
aS'right'
p43
aa(lp44
I0
aF107.09378099441528
aS'left'
p45
aa(lp46
I0
aF116.13495397567749
aS'right'
p47
aa(lp48
I1
aF2.9777090549468994
aS'left'
p49
aa(lp50
I1
aF6.3307321071624756
aS'right'
p51
aa(lp52
I1
aF20.86017107963562
aS'left'
p53
aa(lp54
I1
aF47.834288120269775
aS'right'
p55
aa(lp56
I1
aF60.12835693359375
aS'left'
p57
aa(lp58
I1
aF67.902552127838135
aS'right'
p59
aa(lp60
I1
aF80.19672703742981
aS'left'
p61
aa(lp62
I1
aF95.493237972259521
aS'right'
p63
aa(lp64
I1
aF103.0168890953064
aS'left'
p65
aa(lp66
I1
aF116.4287109375
aS'right'
p67
aa(lp68
I2
aF1.3537061214447021
aS'right'
p69
aa(lp70
I2
aF15.48310399055481
aS'left'
p71
aa(lp72
I2
aF25.626014947891235
aS'right'
p73
aa(lp74
I2
aF35.818170070648193
aS'left'
p75
aa(lp76
I2
aF53.684561014175415
aS'right'
p77
aa(lp78
I2
aF67.012666940689087
aS'left'
p79
aa(lp80
I2
aF90.501039028167725
aS'right'
p81
aa(lp82
I2
aF104.54712295532227
aS'left'
p83
aa(lp84
I2
aF112.70382905006409
aS'right'
p85
aas.