(dp1
S'responses'
p2
(lp3
(lp4
I-1
aF1.7950739860534668
aS'right'
p5
aa(lp6
I-1
aF12.287434816360474
aS'left'
p7
aa(lp8
I-1
aF22.379204988479614
aS'right'
p9
aa(lp10
I0
aF1.0679130554199219
aS'right'
p11
aa(lp12
I0
aF11.192310094833374
aS'right'
p13
aa(lp14
I0
aF21.868187189102173
aS'right'
p15
aa(lp16
I0
aF33.794649124145508
aS'left'
p17
aa(lp18
I0
aF47.271889209747314
aS'right'
p19
aa(lp20
I0
aF55.712640047073364
aS'left'
p21
aa(lp22
I0
aF71.642329216003418
aS'right'
p23
aa(lp24
I0
aF79.882009029388428
aS'left'
p25
aa(lp26
I0
aF89.340059041976929
aS'right'
p27
aa(lp28
I0
aF98.580010175704956
aS'left'
p29
aa(lp30
I0
aF111.27464699745178
aS'right'
p31
aas.