(dp1
S'responses'
p2
(lp3
(lp4
I0
aF3.9737708568572998
aS'right'
p5
aa(lp6
I0
aF10.512109994888306
aS'left'
p7
aa(lp8
I0
aF20.703903913497925
aS'right'
p9
aa(lp10
I0
aF30.612591981887817
aS'left'
p11
aa(lp12
I0
aF45.707356929779053
aS'right'
p13
aa(lp14
I0
aF53.714362859725952
aS'left'
p15
aa(lp16
I0
aF60.903770923614502
aS'right'
p17
aa(lp18
I0
aF70.678293943405151
aS'left'
p19
aa(lp20
I0
aF80.452911853790283
aS'right'
p21
aa(lp22
I0
aF92.763336896896362
aS'right'
p23
aa(lp24
I0
aF94.530680894851685
aS'left'
p25
aa(lp26
I0
aF104.10566186904907
aS'right'
p27
aa(lp28
I0
aF113.01275491714478
aS'left'
p29
aa(lp30
I1
aF0.0084459781646728516
aS'right'
p31
aa(lp32
I1
aF2.2605199813842773
aS'right'
p33
aa(lp34
I1
aF10.783598899841309
aS'left'
p35
aa(lp36
I1
aF14.837000846862793
aS'right'
p37
aa(lp38
I1
aF33.135040044784546
aS'right'
p39
aa(lp40
I1
aF35.704387903213501
aS'left'
p41
aa(lp42
I1
aF40.724496841430664
aS'right'
p43
aa(lp44
I1
aF58.472153902053833
aS'right'
p45
aa(lp46
I1
aF78.255887031555176
aS'right'
p47
aa(lp48
I1
aF106.34586000442505
aS'right'
p49
aa(lp50
I2
aF2.1065700054168701
aS'right'
p51
aa(lp52
I2
aF20.739157915115356
aS'left'
p53
aa(lp54
I2
aF38.670185089111328
aS'right'
p55
aa(lp56
I2
aF49.878864049911499
aS'left'
p57
aa(lp58
I2
aF56.351188898086548
aS'right'
p59
aa(lp60
I2
aF66.643454074859619
aS'left'
p61
aa(lp62
I2
aF77.952656984329224
aS'left'
p63
aa(lp64
I2
aF84.824490070343018
aS'right'
p65
aa(lp66
I2
aF99.7707359790802
aS'left'
p67
aa(lp68
I2
aF107.34442090988159
aS'left'
p69
aa(lp70
I2
aF109.96226692199707
aS'right'
p71
aa(lp72
I2
aF119.30370211601257
aS'left'
p73
aas.