(dp1
S'responses'
p2
(lp3
(lp4
I-1
aF10.053857088088989
aS'right'
p5
aa(lp6
I-1
aF15.975866079330444
aS'right'
p7
aa(lp8
I-1
aF17.410814046859741
aS'left'
p9
aa(lp10
I-1
aF23.533499002456665
aS'right'
p11
aa(lp12
I0
aF2.3151640892028809
aS'left'
p13
aa(lp14
I0
aF3.5824260711669922
aS'right'
p15
aa(lp16
I0
aF11.923651933670044
aS'left'
p17
aa(lp18
I0
aF21.014545917510986
aS'right'
p19
aa(lp20
I0
aF33.925261974334717
aS'left'
p21
aa(lp22
I0
aF38.929618120193481
aS'left'
p23
aa(lp24
I0
aF44.601547002792358
aS'right'
p25
aa(lp26
I0
aF57.645800113677979
aS'left'
p27
aa(lp28
I0
aF68.672410011291504
aS'right'
p29
aa(lp30
I0
aF77.546396017074585
aS'left'
p31
aa(lp32
I0
aF86.521685123443604
aS'right'
p33
aa(lp34
I0
aF97.564188957214355
aS'left'
p35
aa(lp36
I0
aF110.7756679058075
aS'right'
p37
aas.