(dp1
S'responses'
p2
(lp3
(lp4
I-1
aF1.3172879219055176
aS'right'
p5
aa(lp6
I-1
aF11.810352087020874
aS'left'
p7
aa(lp8
I-1
aF20.633964061737061
aS'right'
p9
aa(lp10
I0
aF1.1875700950622559
aS'right'
p11
aa(lp12
I0
aF11.913070201873779
aS'left'
p13
aa(lp14
I0
aF30.07851505279541
aS'right'
p15
aa(lp16
I0
aF36.149573087692261
aS'left'
p17
aa(lp18
I0
aF45.24036717414856
aS'right'
p19
aa(lp20
I0
aF57.901238203048706
aS'left'
p21
aa(lp22
I0
aF94.081773042678833
aS'right'
p23
aa(lp24
I0
aF102.93979501724243
aS'left'
p25
aa(lp26
I0
aF112.61481499671936
aS'right'
p27
aas.