(dp1
S'responses'
p2
(lp3
(lp4
I0
aF2.6136159896850586
aS'right'
p5
aa(lp6
I0
aF10.036616086959839
aS'left'
p7
aa(lp8
I0
aF16.225327968597412
aS'right'
p9
aa(lp10
I0
aF25.833683013916016
aS'left'
p11
aa(lp12
I0
aF31.926898956298828
aS'right'
p13
aa(lp14
I0
aF56.559996128082275
aS'left'
p15
aa(lp16
I0
aF67.452195167541504
aS'right'
p17
aa(lp18
I0
aF83.699226140975952
aS'left'
p19
aa(lp20
I0
aF89.537387132644653
aS'right'
p21
aa(lp22
I0
aF104.70033717155457
aS'left'
p23
aa(lp24
I0
aF114.60877203941345
aS'right'
p25
aa(lp26
I1
aF1.1414999961853027
aS'right'
p27
aa(lp28
I1
aF5.5946459770202637
aS'left'
p29
aa(lp30
I1
aF23.827495098114014
aS'right'
p31
aa(lp32
I1
aF33.618277072906494
aS'left'
p33
aa(lp34
I1
aF54.486685991287231
aS'right'
p35
aa(lp36
I1
aF57.723145008087158
aS'left'
p37
aa(lp38
I1
aF67.230232954025269
aS'right'
p39
aa(lp40
I1
aF73.81958794593811
aS'left'
p41
aa(lp42
I1
aF84.679137945175171
aS'right'
p43
aa(lp44
I1
aF94.586587905883789
aS'left'
p45
aa(lp46
I1
aF105.06246209144592
aS'right'
p47
aa(lp48
I1
aF119.52465987205505
aS'left'
p49
aa(lp50
I2
aF1.1534109115600586
aS'left'
p51
aa(lp52
I2
aF13.796167850494385
aS'right'
p53
aa(lp54
I2
aF17.816535949707031
aS'left'
p55
aa(lp56
I2
aF22.737870931625366
aS'right'
p57
aa(lp58
I2
aF30.277171850204468
aS'left'
p59
aa(lp60
I2
aF37.734356880187988
aS'right'
p61
aa(lp62
I2
aF46.007215023040771
aS'left'
p63
aa(lp64
I2
aF52.680243968963623
aS'right'
p65
aa(lp66
I2
aF59.985663890838623
aS'left'
p67
aa(lp68
I2
aF65.590232849121094
aS'right'
p69
aa(lp70
I2
aF96.550025939941406
aS'left'
p71
aa(lp72
I2
aF102.02133393287659
aS'right'
p73
aas.