(dp1
S'responses'
p2
(lp3
(lp4
I-1
aF4.1792559623718262
aS'right'
p5
aa(lp6
I-1
aF12.169028997421265
aS'left'
p7
aa(lp8
I-1
aF20.693400859832764
aS'right'
p9
aa(lp10
I0
aF0.92420101165771484
aS'right'
p11
aa(lp12
I0
aF11.666651964187622
aS'left'
p13
aa(lp14
I0
aF20.574554920196533
aS'right'
p15
aa(lp16
I0
aF30.2986159324646
aS'left'
p17
aa(lp18
I0
aF34.385787963867188
aS'left'
p19
aa(lp20
I0
aF44.895018815994263
aS'right'
p21
aa(lp22
I0
aF58.123127937316895
aS'left'
p23
aa(lp24
I0
aF68.766034841537476
aS'right'
p25
aa(lp26
I0
aF77.740718841552734
aS'left'
p27
aa(lp28
I0
aF87.216377019882202
aS'right'
p29
aa(lp30
I0
aF97.858155012130737
aS'left'
p31
aas.