(dp1
S'responses'
p2
(lp3
(lp4
I0
aF2.3736519813537598
aS'right'
p5
aa(lp6
I0
aF4.6090819835662842
aS'left'
p7
aa(lp8
I0
aF7.3106980323791504
aS'right'
p9
aa(lp10
I0
aF14.950921058654785
aS'left'
p11
aa(lp12
I0
aF18.95414400100708
aS'right'
p13
aa(lp14
I0
aF22.590672016143799
aS'left'
p15
aa(lp16
I0
aF30.147776126861572
aS'left'
p17
aa(lp18
I0
aF32.93332314491272
aS'right'
p19
aa(lp20
I0
aF37.086969137191772
aS'right'
p21
aa(lp22
I0
aF40.873559951782227
aS'left'
p23
aa(lp24
I0
aF48.113110065460205
aS'right'
p25
aa(lp26
I0
aF54.869137048721313
aS'left'
p27
aa(lp28
I0
aF60.908188104629517
aS'right'
p29
aa(lp30
I0
aF65.779049158096313
aS'right'
p31
aa(lp32
I0
aF68.331053972244263
aS'left'
p33
aa(lp34
I0
aF74.102643966674805
aS'left'
p35
aa(lp36
I0
aF80.574960947036743
aS'right'
p37
aa(lp38
I0
aF81.392007112503052
aS'left'
p39
aa(lp40
I0
aF85.729719161987305
aS'right'
p41
aa(lp42
I0
aF91.033324003219604
aS'right'
p43
aa(lp44
I0
aF95.654263019561768
aS'left'
p45
aa(lp46
I0
aF102.56022906303406
aS'left'
p47
aa(lp48
I0
aF106.37985515594482
aS'right'
p49
aa(lp50
I0
aF111.60164213180542
aS'right'
p51
aa(lp52
I0
aF115.22068905830383
aS'left'
p53
aa(lp54
I0
aF116.92236709594727
aS'right'
p55
aa(lp56
I1
aF1.974931001663208
aS'left'
p57
aa(lp58
I1
aF15.838022947311401
aS'right'
p59
aa(lp60
I1
aF19.256894826889038
aS'left'
p61
aa(lp62
I1
aF26.130375862121582
aS'right'
p63
aa(lp64
I1
aF32.869404792785645
aS'left'
p65
aa(lp66
I1
aF41.226562976837158
aS'right'
p67
aa(lp68
I1
aF46.029915809631348
aS'right'
p69
aa(lp70
I1
aF62.210651874542236
aS'left'
p71
aa(lp72
I1
aF63.611832857131958
aS'right'
p73
aa(lp74
I1
aF67.064502000808716
aS'left'
p75
aa(lp76
I1
aF72.186455965042114
aS'right'
p77
aa(lp78
I1
aF76.072665929794312
aS'left'
p79
aa(lp80
I1
aF104.14724183082581
aS'left'
p81
aa(lp82
I2
aF1.6171791553497314
aS'left'
p83
aa(lp84
I2
aF16.280396223068237
aS'right'
p85
aa(lp86
I2
aF18.716108083724976
aS'left'
p87
aa(lp88
I2
aF49.441951990127563
aS'right'
p89
aa(lp90
I2
aF119.30257105827332
aS'right'
p91
aas.