(dp1
S'responses'
p2
(lp3
(lp4
I0
aF2.3631598949432373
aS'left'
p5
aa(lp6
I0
aF8.9190628528594971
aS'right'
p7
aa(lp8
I0
aF16.776389837265015
aS'left'
p9
aa(lp10
I0
aF28.936983823776245
aS'right'
p11
aa(lp12
I0
aF34.192487001419067
aS'left'
p13
aa(lp14
I0
aF38.86285400390625
aS'right'
p15
aa(lp16
I0
aF47.470800876617432
aS'left'
p17
aa(lp18
I0
aF55.478290796279907
aS'left'
p19
aa(lp20
I0
aF61.933712959289551
aS'right'
p21
aa(lp22
I0
aF73.711121797561646
aS'left'
p23
aa(lp24
I0
aF82.919243812561035
aS'right'
p25
aa(lp26
I0
aF88.557729959487915
aS'left'
p27
aa(lp28
I0
aF95.864187002182007
aS'right'
p29
aa(lp30
I0
aF105.10578298568726
aS'left'
p31
aa(lp32
I0
aF109.32571482658386
aS'right'
p33
aa(lp34
I1
aF1.4066948890686035
aS'left'
p35
aa(lp36
I1
aF10.098140954971313
aS'right'
p37
aa(lp38
I1
aF19.490138053894043
aS'left'
p39
aa(lp40
I1
aF26.028941869735718
aS'right'
p41
aa(lp42
I1
aF39.273714065551758
aS'left'
p43
aa(lp44
I1
aF51.4183669090271
aS'right'
p45
aa(lp46
I1
aF62.862185001373291
aS'left'
p47
aa(lp48
I1
aF68.132925033569336
aS'right'
p49
aa(lp50
I1
aF86.532907009124756
aS'left'
p51
aa(lp52
I1
aF113.04018092155457
aS'right'
p53
aa(lp54
I2
aF1.154778003692627
aS'right'
p55
aa(lp56
I2
aF10.831048011779785
aS'left'
p57
aa(lp58
I2
aF17.119280099868774
aS'right'
p59
aa(lp60
I2
aF31.999331951141357
aS'left'
p61
aa(lp62
I2
aF46.579286098480225
aS'right'
p63
aa(lp64
I2
aF70.084045886993408
aS'left'
p65
aa(lp66
I2
aF82.744734048843384
aS'right'
p67
aa(lp68
I2
aF106.31638407707214
aS'left'
p69
aa(lp70
I2
aF115.6073169708252
aS'right'
p71
aas.