(dp1
S'responses'
p2
(lp3
(lp4
I0
aF1.8332719802856445
aS'right'
p5
aa(lp6
I0
aF9.5077719688415527
aS'left'
p7
aa(lp8
I0
aF13.978155851364136
aS'left'
p9
aa(lp10
I0
aF17.313395977020264
aS'right'
p11
aa(lp12
I0
aF23.802448987960815
aS'left'
p13
aa(lp14
I0
aF27.756371021270752
aS'left'
p15
aa(lp16
I0
aF29.090455055236816
aS'right'
p17
aa(lp18
I0
aF37.598325967788696
aS'left'
p19
aa(lp20
I0
aF43.720798969268799
aS'right'
p21
aa(lp22
I0
aF44.653843879699707
aS'left'
p23
aa(lp24
I0
aF47.206066846847534
aS'right'
p25
aa(lp26
I0
aF49.007465839385986
aS'left'
p27
aa(lp28
I0
aF56.447685956954956
aS'right'
p29
aa(lp30
I0
aF70.877081871032715
aS'left'
p31
aa(lp32
I0
aF80.168489933013916
aS'right'
p33
aa(lp34
I0
aF87.541658878326416
aS'left'
p35
aa(lp36
I0
aF96.282669067382812
aS'right'
p37
aa(lp38
I0
aF110.36147499084473
aS'left'
p39
aa(lp40
I0
aF116.39936399459839
aS'right'
p41
aa(lp42
I0
aF118.85198998451233
aS'left'
p43
aa(lp44
I1
aF1.2532610893249512
aS'left'
p45
aa(lp46
I1
aF13.880677938461304
aS'right'
p47
aa(lp48
I1
aF28.460229873657227
aS'left'
p49
aa(lp50
I1
aF35.549468994140625
aS'right'
p51
aa(lp52
I1
aF50.012151956558228
aS'left'
p53
aa(lp54
I1
aF67.91093897819519
aS'right'
p55
aa(lp56
I1
aF77.152324914932251
aS'left'
p57
aa(lp58
I1
aF78.520160913467407
aS'right'
p59
aa(lp60
I1
aF92.115894079208374
aS'left'
p61
aa(lp62
I1
aF104.44297790527344
aS'left'
p63
aa(lp64
I1
aF108.56306004524231
aS'right'
p65
aa(lp66
I1
aF117.6541759967804
aS'left'
p67
aa(lp68
I2
aF1.1558980941772461
aS'right'
p69
aa(lp70
I2
aF8.0954959392547607
aS'left'
p71
aa(lp72
I2
aF17.969673871994019
aS'right'
p73
aa(lp74
I2
aF27.261238098144531
aS'left'
p75
aa(lp76
I2
aF38.288174867630005
aS'right'
p77
aa(lp78
I2
aF46.328290939331055
aS'left'
p79
aa(lp80
I2
aF54.151947975158691
aS'right'
p81
aa(lp82
I2
aF61.624572038650513
aS'right'
p83
aa(lp84
I2
aF71.916882038116455
aS'right'
p85
aa(lp86
I2
aF75.720299959182739
aS'left'
p87
aa(lp88
I2
aF83.676801919937134
aS'right'
p89
aa(lp90
I2
aF90.183130025863647
aS'left'
p91
aa(lp92
I2
aF96.438843011856079
aS'left'
p93
aa(lp94
I2
aF114.78699088096619
aS'left'
p95
aa(lp96
I2
aF118.64059495925903
aS'right'
p97
aas.