(dp1
S'responses'
p2
(lp3
(lp4
I0
aF5.2313690185546875
aS'left'
p5
aa(lp6
I0
aF27.767528057098389
aS'right'
p7
aa(lp8
I0
aF40.361215114593506
aS'left'
p9
aa(lp10
I0
aF56.007980108261108
aS'right'
p11
aa(lp12
I0
aF68.851776123046875
aS'left'
p13
aa(lp14
I0
aF85.065675020217896
aS'right'
p15
aa(lp16
I0
aF94.557351112365723
aS'left'
p17
aa(lp18
I0
aF113.62339997291565
aS'right'
p19
aa(lp20
I1
aF4.1175220012664795
aS'right'
p21
aa(lp22
I1
aF11.539380073547363
aS'left'
p23
aa(lp24
I1
aF29.905890941619873
aS'right'
p25
aa(lp26
I1
aF35.110275983810425
aS'left'
p27
aa(lp28
I1
aF43.650331020355225
aS'right'
p29
aa(lp30
I1
aF65.768906116485596
aS'left'
p31
aa(lp32
I1
aF80.38135814666748
aS'right'
p33
aa(lp34
I1
aF109.55653309822083
aS'left'
p35
aa(lp36
I2
aF2.0083260536193848
aS'right'
p37
aa(lp38
I2
aF5.9111042022705078
aS'left'
p39
aa(lp40
I2
aF17.637924194335938
aS'right'
p41
aa(lp42
I2
aF31.233091115951538
aS'left'
p43
aa(lp44
I2
aF39.073423147201538
aS'right'
p45
aa(lp46
I2
aF69.748366117477417
aS'left'
p47
aa(lp48
I2
aF79.857148170471191
aS'right'
p49
aa(lp50
I2
aF89.432473182678223
aS'right'
p51
aa(lp52
I2
aF99.757501125335693
aS'left'
p53
aa(lp54
I2
aF114.48626017570496
aS'right'
p55
aas.