(dp1
S'responses'
p2
(lp3
(lp4
I0
aF1.0088448524475098
aS'left'
p5
aa(lp6
I0
aF4.6794309616088867
aS'right'
p7
aa(lp8
I0
aF6.4146678447723389
aS'left'
p9
aa(lp10
I0
aF8.1325168609619141
aS'right'
p11
aa(lp12
I0
aF10.083343029022217
aS'right'
p13
aa(lp14
I0
aF11.785140991210938
aS'left'
p15
aa(lp16
I0
aF14.50403904914856
aS'right'
p17
aa(lp18
I0
aF16.473278045654297
aS'right'
p19
aa(lp20
I0
aF18.508249998092651
aS'left'
p21
aa(lp22
I0
aF20.275856971740723
aS'left'
p23
aa(lp24
I0
aF22.377936840057373
aS'left'
p25
aa(lp26
I0
aF24.112470865249634
aS'left'
p27
aa(lp28
I0
aF25.932071924209595
aS'left'
p29
aa(lp30
I0
aF27.733108997344971
aS'left'
p31
aa(lp32
I0
aF29.617677927017212
aS'right'
p33
aa(lp34
I0
aF31.819625854492188
aS'right'
p35
aa(lp36
I0
aF33.971855878829956
aS'right'
p37
aa(lp38
I0
aF35.856541872024536
aS'right'
p39
aa(lp40
I0
aF37.859087944030762
aS'right'
p41
aa(lp42
I0
aF39.959984064102173
aS'right'
p43
aa(lp44
I0
aF42.312273025512695
aS'left'
p45
aa(lp46
I0
aF44.831966876983643
aS'right'
p47
aa(lp48
I0
aF46.632850885391235
aS'left'
p49
aa(lp50
I0
aF48.467777013778687
aS'left'
p51
aa(lp52
I0
aF52.138414859771729
aS'left'
p53
aa(lp54
I0
aF54.12271785736084
aS'left'
p55
aa(lp56
I0
aF56.324960947036743
aS'right'
p57
aa(lp58
I0
aF58.576727867126465
aS'right'
p59
aa(lp60
I0
aF60.545105934143066
aS'right'
p61
aa(lp62
I0
aF63.231570959091187
aS'left'
p63
aa(lp64
I0
aF66.166774988174438
aS'right'
p65
aa(lp66
I0
aF68.6356520652771
aS'right'
p67
aa(lp68
I0
aF71.054889917373657
aS'right'
p69
aa(lp70
I0
aF73.856945037841797
aS'right'
p71
aa(lp72
I0
aF76.777030944824219
aS'right'
p73
aa(lp74
I0
aF79.161764860153198
aS'right'
p75
aa(lp76
I0
aF81.446956872940063
aS'right'
p77
aa(lp78
I0
aF84.433008909225464
aS'right'
p79
aa(lp80
I0
aF87.669193029403687
aS'left'
p81
aa(lp82
I0
aF90.238126993179321
aS'right'
p83
aa(lp84
I0
aF92.306676864624023
aS'left'
p85
aa(lp86
I0
aF94.525789976119995
aS'left'
p87
aa(lp88
I0
aF96.793849945068359
aS'left'
p89
aa(lp90
I0
aF99.095815896987915
aS'left'
p91
aa(lp92
I0
aF100.56424188613892
aS'right'
p93
aa(lp94
I0
aF102.26616191864014
aS'right'
p95
aa(lp96
I0
aF104.3513970375061
aS'right'
p97
aa(lp98
I0
aF106.11982703208923
aS'left'
p99
aa(lp100
I0
aF108.05441403388977
aS'right'
p101
aa(lp102
I0
aF109.72209405899048
aS'right'
p103
aa(lp104
I0
aF111.85737490653992
aS'right'
p105
aa(lp106
I0
aF114.10940384864807
aS'left'
p107
aa(lp108
I0
aF116.46138286590576
aS'right'
p109
aa(lp110
I0
aF118.88063192367554
aS'right'
p111
aa(lp112
I1
aF1.1069579124450684
aS'left'
p113
aa(lp114
I1
aF3.0421159267425537
aS'left'
p115
aa(lp116
I1
aF3.7768418788909912
aS'right'
p117
aa(lp118
I1
aF6.2948660850524902
aS'right'
p119
aa(lp120
I1
aF8.347121000289917
aS'left'
p121
aa(lp122
I1
aF10.365077018737793
aS'left'
p123
aa(lp124
I1
aF12.801305055618286
aS'left'
p125
aa(lp126
I1
aF14.703149080276489
aS'right'
p127
aa(lp128
I1
aF16.604217052459717
aS'right'
p129
aa(lp130
I1
aF18.989462852478027
aS'right'
p131
aa(lp132
I1
aF21.091562032699585
aS'right'
p133
aa(lp134
I1
aF23.309973001480103
aS'right'
p135
aa(lp136
I1
aF25.595684051513672
aS'right'
p137
aa(lp138
I1
aF28.014158010482788
aS'right'
p139
aa(lp140
I1
aF29.899864912033081
aS'right'
p141
aa(lp142
I1
aF32.068418025970459
aS'right'
p143
aa(lp144
I1
aF34.137101888656616
aS'left'
p145
aa(lp146
I1
aF35.737665891647339
aS'right'
p147
aa(lp148
I1
aF37.772727966308594
aS'left'
p149
aa(lp150
I1
aF39.658113956451416
aS'left'
p151
aa(lp152
I1
aF41.742894887924194
aS'left'
p153
aa(lp154
I1
aF43.711327075958252
aS'left'
p155
aa(lp156
I1
aF45.546025991439819
aS'left'
p157
aa(lp158
I1
aF47.899249076843262
aS'right'
p159
aa(lp160
I1
aF50.017267942428589
aS'right'
p161
aa(lp162
I1
aF52.102558851242065
aS'right'
p163
aa(lp164
I1
aF54.036994934082031
aS'right'
p165
aa(lp166
I1
aF56.055227994918823
aS'right'
p167
aa(lp168
I1
aF58.641473054885864
aS'right'
p169
aa(lp170
I1
aF61.127578973770142
aS'right'
p171
aa(lp172
I1
aF63.462216854095459
aS'right'
p173
aa(lp174
I1
aF65.864861965179443
aS'right'
p175
aa(lp176
I1
aF69.36772894859314
aS'right'
p177
aa(lp178
I1
aF71.770096063613892
aS'left'
p179
aa(lp180
I1
aF74.105223894119263
aS'left'
p181
aa(lp182
I1
aF76.356653928756714
aS'left'
p183
aa(lp184
I1
aF79.00932502746582
aS'left'
p185
aa(lp186
I1
aF81.227915048599243
aS'left'
p187
aa(lp188
I1
aF83.497236967086792
aS'right'
p189
aa(lp190
I1
aF85.731988906860352
aS'right'
p191
aa(lp192
I1
aF88.318181991577148
aS'right'
p193
aa(lp194
I1
aF90.052515029907227
aS'right'
p195
aa(lp196
I1
aF92.571347951889038
aS'right'
p197
aa(lp198
I1
aF94.5571608543396
aS'right'
p199
aa(lp200
I1
aF96.809014081954956
aS'right'
p201
aa(lp202
I1
aF99.261415958404541
aS'right'
p203
aa(lp204
I1
aF101.17905902862549
aS'right'
p205
aa(lp206
I1
aF103.69790601730347
aS'right'
p207
aa(lp208
I1
aF105.866544008255
aS'right'
p209
aa(lp210
I1
aF108.16904306411743
aS'right'
p211
aa(lp212
I1
aF110.32115006446838
aS'right'
p213
aa(lp214
I1
aF112.58991694450378
aS'left'
p215
aa(lp216
I1
aF114.65808701515198
aS'left'
p217
aa(lp218
I1
aF117.01051807403564
aS'right'
p219
aa(lp220
I1
aF118.51094388961792
aS'left'
p221
aa(lp222
I2
aF1.0726630687713623
aS'left'
p223
aa(lp224
I2
aF3.4078030586242676
aS'left'
p225
aa(lp226
I2
aF5.5771129131317139
aS'left'
p227
aa(lp228
I2
aF7.6116130352020264
aS'left'
p229
aa(lp230
I2
aF8.2621090412139893
aS'right'
p231
aa(lp232
I2
aF10.081255912780762
aS'right'
p233
aa(lp234
I2
aF11.682960033416748
aS'left'
p235
aa(lp236
I2
aF13.61712908744812
aS'left'
p237
aa(lp238
I2
aF15.402868986129761
aS'right'
p239
aa(lp240
I2
aF17.487292051315308
aS'right'
p241
aa(lp242
I2
aF20.106205940246582
aS'right'
p243
aa(lp244
I2
aF22.158351898193359
aS'right'
p245
aa(lp246
I2
aF24.17659592628479
aS'right'
p247
aa(lp248
I2
aF24.676701068878174
aS'left'
p249
aa(lp250
I2
aF26.762627124786377
aS'left'
p251
aa(lp252
I2
aF28.897886991500854
aS'left'
p253
aa(lp254
I2
aF30.799677133560181
aS'left'
p255
aa(lp256
I2
aF32.901695966720581
aS'left'
p257
aa(lp258
I2
aF34.88597297668457
aS'left'
p259
aa(lp260
I2
aF37.072123050689697
aS'left'
p261
aa(lp262
I2
aF39.640609979629517
aS'left'
p263
aa(lp264
I2
aF42.226388931274414
aS'left'
p265
aa(lp266
I2
aF44.895169973373413
aS'left'
p267
aa(lp268
I2
aF48.231221914291382
aS'left'
p269
aa(lp270
I2
aF50.683586120605469
aS'right'
p271
aa(lp272
I2
aF53.452093124389648
aS'left'
p273
aa(lp274
I2
aF54.253638982772827
aS'right'
p275
aa(lp276
I2
aF56.154999971389771
aS'right'
p277
aa(lp278
I2
aF58.023648977279663
aS'left'
p279
aa(lp280
I2
aF59.323978900909424
aS'right'
p281
aa(lp282
I2
aF60.625811100006104
aS'left'
p283
aa(lp284
I2
aF61.876697063446045
aS'right'
p285
aa(lp286
I2
aF64.996469020843506
aS'left'
p287
aa(lp288
I2
aF71.168224096298218
aS'right'
p289
aa(lp290
I2
aF73.887299060821533
aS'left'
p291
aa(lp292
I2
aF76.122386932373047
aS'left'
p293
aa(lp294
I2
aF79.32555890083313
aS'right'
p295
aa(lp296
I2
aF81.794443130493164
aS'right'
p297
aa(lp298
I2
aF84.496618986129761
aS'right'
p299
aa(lp300
I2
aF87.799525022506714
aS'left'
p301
aa(lp302
I2
aF89.367655992507935
aS'left'
p303
aa(lp304
I2
aF91.469455003738403
aS'left'
p305
aa(lp306
I2
aF93.471276998519897
aS'right'
p307
aa(lp308
I2
aF95.656590938568115
aS'right'
p309
aa(lp310
I2
aF98.975970983505249
aS'left'
p311
aa(lp312
I2
aF102.09640598297119
aS'right'
p313
aa(lp314
I2
aF105.08240699768066
aS'left'
p315
aa(lp316
I2
aF107.25066900253296
aS'left'
p317
aa(lp318
I2
aF109.08493399620056
aS'right'
p319
aa(lp320
I2
aF110.90341711044312
aS'right'
p321
aa(lp322
I2
aF112.77158308029175
aS'right'
p323
aa(lp324
I2
aF114.47385191917419
aS'right'
p325
aa(lp326
I2
aF116.4085259437561
aS'right'
p327
aa(lp328
I2
aF118.20990610122681
aS'left'
p329
aas.