(dp1
S'responses'
p2
(lp3
(lp4
I0
aF1.7354190349578857
aS'left'
p5
aa(lp6
I0
aF25.905566930770874
aS'right'
p7
aa(lp8
I0
aF33.712138891220093
aS'left'
p9
aa(lp10
I0
aF40.150099039077759
aS'right'
p11
aa(lp12
I0
aF58.449168920516968
aS'left'
p13
aa(lp14
I0
aF61.06837797164917
aS'right'
p15
aa(lp16
I0
aF118.73359298706055
aS'left'
p17
aa(lp18
I1
aF1.7029011249542236
aS'right'
p19
aa(lp20
I1
aF18.366162061691284
aS'left'
p21
aa(lp22
I1
aF38.232888221740723
aS'right'
p23
aa(lp24
I1
aF49.32577109336853
aS'left'
p25
aa(lp26
I1
aF87.992603063583374
aS'right'
p27
aa(lp28
I1
aF98.050260066986084
aS'left'
p29
aa(lp30
I1
aF108.35907220840454
aS'right'
p31
aa(lp32
I1
aF114.73122715950012
aS'left'
p33
aa(lp34
I1
aF116.09873008728027
aS'right'
p35
aa(lp36
I2
aF0.98961019515991211
aS'right'
p37
aa(lp38
I2
aF28.880956172943115
aS'left'
p39
aa(lp40
I2
aF33.53469705581665
aS'right'
p41
aa(lp42
I2
aF47.045408010482788
aS'left'
p43
aa(lp44
I2
aF54.668546199798584
aS'right'
p45
aa(lp46
I2
aF72.199907064437866
aS'left'
p47
aa(lp48
I2
aF83.192609071731567
aS'right'
p49
aa(lp50
I2
aF108.88192200660706
aS'left'
p51
aas.