(dp1
S'responses'
p2
(lp3
(lp4
I-1
aF3.6894299983978271
aS'right'
p5
aa(lp6
I-1
aF10.645687818527222
aS'left'
p7
aa(lp8
I-1
aF21.321728944778442
aS'right'
p9
aa(lp10
I0
aF0.9895479679107666
aS'right'
p11
aa(lp12
I0
aF6.7783730030059814
aS'left'
p13
aa(lp14
I0
aF9.8812949657440186
aS'right'
p15
aa(lp16
I0
aF12.232662916183472
aS'left'
p17
aa(lp18
I0
aF20.740530014038086
aS'right'
p19
aa(lp20
I0
aF33.968587875366211
aS'left'
p21
aa(lp22
I0
aF43.642647981643677
aS'right'
p23
aa(lp24
I0
aF54.435333967208862
aS'left'
p25
aa(lp26
I0
aF56.220913887023926
aS'right'
p27
aa(lp28
I0
aF58.472371816635132
aS'left'
p29
aa(lp30
I0
aF68.932039022445679
aS'right'
p31
aa(lp32
I0
aF78.190411806106567
aS'left'
p33
aa(lp34
I0
aF87.297886848449707
aS'right'
p35
aa(lp36
I0
aF97.72321081161499
aS'left'
p37
aa(lp38
I0
aF110.46745800971985
aS'right'
p39
aas.