(dp1
S'responses'
p2
(lp3
(lp4
I-1
aF1.977924108505249
aS'left'
p5
aa(lp6
I-1
aF4.0124599933624268
aS'left'
p7
aa(lp8
I-1
aF6.3986730575561523
aS'right'
p9
aa(lp10
I-1
aF8.3996391296386719
aS'right'
p11
aa(lp12
I-1
aF10.367866039276123
aS'right'
p13
aa(lp14
I-1
aF12.553122997283936
aS'left'
p15
aa(lp16
I-1
aF14.522395133972168
aS'left'
p17
aa(lp18
I-1
aF16.507490158081055
aS'left'
p19
aa(lp20
I-1
aF18.525837182998657
aS'left'
p21
aa(lp22
I-1
aF21.327891111373901
aS'right'
p23
aa(lp24
I-1
aF23.363455057144165
aS'right'
p25
aa(lp26
I-1
aF25.615143060684204
aS'right'
p27
aa(lp28
I-1
aF27.783267021179199
aS'right'
p29
aa(lp30
I0
aF1.0679891109466553
aS'right'
p31
aa(lp32
I0
aF2.9022750854492188
aS'right'
p33
aa(lp34
I0
aF4.9550979137420654
aS'left'
p35
aa(lp36
I0
aF7.1562459468841553
aS'right'
p37
aa(lp38
I0
aF9.025209903717041
aS'right'
p39
aa(lp40
I0
aF11.393356084823608
aS'left'
p41
aa(lp42
I0
aF13.028420925140381
aS'left'
p43
aa(lp44
I0
aF15.180588006973267
aS'left'
p45
aa(lp46
I0
aF17.265249013900757
aS'left'
p47
aa(lp48
I0
aF19.634902000427246
aS'left'
p49
aa(lp50
I0
aF21.786463022232056
aS'left'
p51
aa(lp52
I0
aF23.721513032913208
aS'right'
p53
aa(lp54
I0
aF25.990233898162842
aS'right'
p55
aa(lp56
I0
aF28.809623956680298
aS'right'
p57
aa(lp58
I0
aF30.577127933502197
aS'right'
p59
aa(lp60
I0
aF33.68087100982666
aS'left'
p61
aa(lp62
I0
aF36.265945911407471
aS'left'
p63
aa(lp64
I0
aF38.483828067779541
aS'left'
p65
aa(lp66
I0
aF41.58768892288208
aS'right'
p67
aa(lp68
I0
aF43.505003929138184
aS'left'
p69
aa(lp70
I0
aF45.240174055099487
aS'left'
p71
aa(lp72
I0
aF47.308517932891846
aS'right'
p73
aa(lp74
I0
aF49.343769073486328
aS'right'
p75
aa(lp76
I0
aF51.612818002700806
aS'right'
p77
aa(lp78
I0
aF53.547708034515381
aS'right'
p79
aa(lp80
I0
aF55.949949026107788
aS'right'
p81
aa(lp82
I0
aF58.184643030166626
aS'right'
p83
aa(lp84
I0
aF60.754864931106567
aS'left'
p85
aa(lp86
I0
aF63.122679948806763
aS'left'
p87
aa(lp88
I0
aF65.558187007904053
aS'left'
p89
aa(lp90
I0
aF67.677290916442871
aS'left'
p91
aa(lp92
I0
aF70.029340982437134
aS'left'
p93
aa(lp94
I0
aF72.230597019195557
aS'right'
p95
aa(lp96
I0
aF74.58287501335144
aS'right'
p97
aa(lp98
I0
aF77.85262393951416
aS'left'
p99
aa(lp100
I0
aF81.005439043045044
aS'left'
p101
aa(lp102
I0
aF83.75846004486084
aS'left'
p103
aa(lp104
I0
aF86.810214996337891
aS'right'
p105
aa(lp106
I0
aF89.662746906280518
aS'right'
p107
aa(lp108
I0
aF92.432445049285889
aS'right'
p109
aa(lp110
I0
aF95.551683902740479
aS'right'
p111
aa(lp112
I0
aF98.087603092193604
aS'right'
p113
aa(lp114
I0
aF100.42298603057861
aS'right'
p115
aa(lp116
I0
aF102.87478089332581
aS'left'
p117
aa(lp118
I0
aF105.79408693313599
aS'left'
p119
aa(lp120
I0
aF107.91311097145081
aS'left'
p121
aa(lp122
I0
aF110.23182392120361
aS'left'
p123
aa(lp124
I0
aF113.05032896995544
aS'right'
p125
aa(lp126
I0
aF116.32053208351135
aS'right'
p127
aa(lp128
I0
aF119.40597200393677
aS'right'
p129
aas.