(dp1
S'responses'
p2
(lp3
(lp4
I-1
aF1.9773349761962891
aS'right'
p5
aa(lp6
I-1
aF12.052206039428711
aS'left'
p7
aa(lp8
I-1
aF22.193994045257568
aS'right'
p9
aa(lp10
I0
aF1.1398870944976807
aS'right'
p11
aa(lp12
I0
aF11.915211200714111
aS'left'
p13
aa(lp14
I0
aF20.989328145980835
aS'right'
p15
aa(lp16
I0
aF34.068124055862427
aS'left'
p17
aa(lp18
I0
aF44.693565130233765
aS'right'
p19
aa(lp20
I0
aF57.837524175643921
aS'left'
p21
aa(lp22
I0
aF68.997786045074463
aS'right'
p23
aa(lp24
I0
aF77.937664985656738
aS'left'
p25
aa(lp26
I0
aF87.162631034851074
aS'right'
p27
aa(lp28
I0
aF98.288558006286621
aS'left'
p29
aa(lp30
I0
aF111.38365316390991
aS'right'
p31
aas.