(dp1
S'responses'
p2
(lp3
(lp4
I-1
aF2.9951090812683105
aS'right'
p5
aa(lp6
I-1
aF11.937136888504028
aS'left'
p7
aa(lp8
I-1
aF21.844631910324097
aS'right'
p9
aa(lp10
I0
aF1.7930819988250732
aS'right'
p11
aa(lp12
I0
aF11.869071960449219
aS'left'
p13
aa(lp14
I0
aF21.143128871917725
aS'right'
p15
aa(lp16
I0
aF34.02058482170105
aS'left'
p17
aa(lp18
I0
aF45.413784980773926
aS'right'
p19
aa(lp20
I0
aF47.699500799179077
aS'left'
p21
aa(lp22
I0
aF51.269198894500732
aS'right'
p23
aa(lp24
I0
aF57.808194875717163
aS'left'
p25
aa(lp26
I0
aF68.784968852996826
aS'right'
p27
aa(lp28
I0
aF77.075038909912109
aS'right'
p29
aa(lp30
I0
aF78.409984827041626
aS'left'
p31
aa(lp32
I0
aF87.300197839736938
aS'right'
p33
aa(lp34
I0
aF94.973449945449829
aS'right'
p35
aa(lp36
I0
aF98.576783895492554
aS'left'
p37
aa(lp38
I0
aF107.26828193664551
aS'left'
p39
aa(lp40
I0
aF111.45564293861389
aS'right'
p41
aa(lp42
I0
aF119.11126685142517
aS'left'
p43
aas.