(dp1
S'responses'
p2
(lp3
(lp4
I0
aF1.8956878185272217
aS'right'
p5
aa(lp6
I0
aF8.0840997695922852
aS'left'
p7
aa(lp8
I0
aF12.570563793182373
aS'right'
p9
aa(lp10
I0
aF18.158797979354858
aS'left'
p11
aa(lp12
I0
aF23.529918909072876
aS'right'
p13
aa(lp14
I0
aF26.71651291847229
aS'left'
p15
aa(lp16
I0
aF33.30537486076355
aS'right'
p17
aa(lp18
I0
aF41.996447801589966
aS'left'
p19
aa(lp20
I0
aF51.853752851486206
aS'right'
p21
aa(lp22
I0
aF66.433062791824341
aS'left'
p23
aa(lp24
I0
aF83.413854837417603
aS'right'
p25
aa(lp26
I0
aF102.64731979370117
aS'left'
p27
aa(lp28
I0
aF117.27656388282776
aS'right'
p29
aa(lp30
I1
aF1.0829839706420898
aS'right'
p31
aa(lp32
I1
aF10.3071448802948
aS'left'
p33
aa(lp34
I1
aF20.283329010009766
aS'right'
p35
aa(lp36
I1
aF35.379101037979126
aS'left'
p37
aa(lp38
I1
aF53.027068853378296
aS'right'
p39
aa(lp40
I1
aF64.670747995376587
aS'right'
p41
aa(lp42
I1
aF81.534325838088989
aS'left'
p43
aa(lp44
I1
aF92.426632881164551
aS'right'
p45
aa(lp46
I1
aF103.57004904747009
aS'left'
p47
aa(lp48
I1
aF115.24653601646423
aS'right'
p49
aa(lp50
I2
aF1.1330420970916748
aS'right'
p51
aa(lp52
I2
aF13.577094078063965
aS'left'
p53
aa(lp54
I2
aF22.384455919265747
aS'right'
p55
aa(lp56
I2
aF36.880456924438477
aS'left'
p57
aa(lp58
I2
aF49.890970945358276
aS'right'
p59
aa(lp60
I2
aF59.282243967056274
aS'left'
p61
aa(lp62
I2
aF63.352540016174316
aS'right'
p63
aa(lp64
I2
aF68.973511934280396
aS'left'
p65
aa(lp66
I2
aF74.111652135848999
aS'right'
p67
aa(lp68
I2
aF78.948554992675781
aS'left'
p69
aa(lp70
I2
aF86.406244993209839
aS'right'
p71
aa(lp72
I2
aF93.828650951385498
aS'left'
p73
aa(lp74
I2
aF99.549492120742798
aS'right'
p75
aa(lp76
I2
aF109.19119691848755
aS'left'
p77
aas.