(dp1
S'responses'
p2
(lp3
(lp4
I0
aF2.3345029354095459
aS'left'
p5
aa(lp6
I0
aF9.9903028011322021
aS'right'
p7
aa(lp8
I0
aF16.378841876983643
aS'left'
p9
aa(lp10
I0
aF22.668220996856689
aS'right'
p11
aa(lp12
I0
aF30.040791988372803
aS'left'
p13
aa(lp14
I0
aF46.087493896484375
aS'right'
p15
aa(lp16
I0
aF53.04364800453186
aS'left'
p17
aa(lp18
I0
aF59.665778875350952
aS'right'
p19
aa(lp20
I0
aF67.121763944625854
aS'left'
p21
aa(lp22
I0
aF82.251905918121338
aS'right'
p23
aa(lp24
I0
aF94.110963821411133
aS'left'
p25
aa(lp26
I0
aF98.781907796859741
aS'right'
p27
aa(lp28
I0
aF110.00801277160645
aS'left'
p29
aa(lp30
I0
aF115.51275777816772
aS'right'
p31
aa(lp32
I1
aF4.7476530075073242
aS'left'
p33
aa(lp34
I1
aF12.104887008666992
aS'right'
p35
aa(lp36
I1
aF18.642769813537598
aS'left'
p37
aa(lp38
I1
aF25.616154909133911
aS'right'
p39
aa(lp40
I1
aF34.422738790512085
aS'left'
p41
aa(lp42
I1
aF52.521270990371704
aS'right'
p43
aa(lp44
I1
aF66.817403793334961
aS'left'
p45
aa(lp46
I1
aF92.955660820007324
aS'right'
p47
aa(lp48
I2
aF15.022585153579712
aS'right'
p49
aa(lp50
I2
aF21.810965061187744
aS'left'
p51
aa(lp52
I2
aF28.566504955291748
aS'right'
p53
aa(lp54
I2
aF36.774199962615967
aS'left'
p55
aa(lp56
I2
aF46.098572969436646
aS'right'
p57
aa(lp58
I2
aF52.203271150588989
aS'left'
p59
aa(lp60
I2
aF59.176748037338257
aS'right'
p61
aa(lp62
I2
aF65.081483125686646
aS'left'
p63
aa(lp64
I2
aF78.008280038833618
aS'right'
p65
aa(lp66
I2
aF96.541006088256836
aS'left'
p67
aa(lp68
I2
aF118.8098521232605
aS'right'
p69
aas.