(dp1
S'responses'
p2
(lp3
(lp4
I-1
aF1.342289924621582
aS'right'
p5
aa(lp6
I-1
aF12.819566011428833
aS'left'
p7
aa(lp8
I-1
aF22.377374887466431
aS'right'
p9
aa(lp10
I0
aF1.2041580677032471
aS'left'
p11
aa(lp12
I0
aF5.9914419651031494
aS'right'
p13
aa(lp14
I0
aF7.7426700592041016
aS'left'
p15
aa(lp16
I0
aF21.421503067016602
aS'right'
p17
aa(lp18
I0
aF34.58359694480896
aS'left'
p19
aa(lp20
I0
aF45.776258945465088
aS'right'
p21
aa(lp22
I0
aF58.454893112182617
aS'left'
p23
aa(lp24
I0
aF70.231153964996338
aS'right'
p25
aa(lp26
I0
aF78.48821496963501
aS'left'
p27
aa(lp28
I0
aF87.896722078323364
aS'right'
p29
aa(lp30
I0
aF99.006237030029297
aS'left'
p31
aa(lp32
I0
aF112.51825094223022
aS'right'
p33
aas.