(dp1
S'responses'
p2
(lp3
(lp4
I-1
aF0.79760503768920898
aS'right'
p5
aa(lp6
I-1
aF11.740623950958252
aS'left'
p7
aa(lp8
I-1
aF24.56855297088623
aS'right'
p9
aa(lp10
I0
aF0.77292418479919434
aS'right'
p11
aa(lp12
I0
aF10.298155069351196
aS'left'
p13
aa(lp14
I0
aF20.622951030731201
aS'right'
p15
aa(lp16
I0
aF33.784918069839478
aS'left'
p17
aa(lp18
I0
aF38.905263185501099
aS'right'
p19
aa(lp20
I0
aF43.009392023086548
aS'left'
p21
aa(lp22
I0
aF46.295112133026123
aS'right'
p23
aa(lp24
I0
aF60.690523147583008
aS'left'
p25
aa(lp26
I0
aF69.264765977859497
aS'right'
p27
aa(lp28
I0
aF77.821973085403442
aS'left'
p29
aa(lp30
I0
aF86.829570055007935
aS'right'
p31
aa(lp32
I0
aF97.988718032836914
aS'left'
p33
aa(lp34
I0
aF110.83362102508545
aS'right'
p35
aas.