(dp1
S'responses'
p2
(lp3
(lp4
I0
aF13.518870115280151
aS'right'
p5
aa(lp6
I0
aF22.326202154159546
aS'left'
p7
aa(lp8
I0
aF28.664560079574585
aS'right'
p9
aa(lp10
I0
aF36.538640022277832
aS'left'
p11
aa(lp12
I0
aF46.562970161437988
aS'right'
p13
aa(lp14
I0
aF55.370726108551025
aS'left'
p15
aa(lp16
I0
aF67.830564975738525
aS'right'
p17
aa(lp18
I0
aF74.403084993362427
aS'right'
p19
aa(lp20
I0
aF78.389204025268555
aS'left'
p21
aa(lp22
I0
aF90.716514110565186
aS'right'
p23
aa(lp24
I0
aF100.17462515830994
aS'left'
p25
aa(lp26
I0
aF114.95356202125549
aS'left'
p27
aa(lp28
I1
aF2.5832948684692383
aS'left'
p29
aa(lp30
I1
aF18.562865018844604
aS'left'
p31
aa(lp32
I1
aF44.234338998794556
aS'right'
p33
aa(lp34
I1
aF75.277298927307129
aS'left'
p35
aa(lp36
I1
aF92.041473865509033
aS'right'
p37
aa(lp38
I2
aF13.478958129882812
aS'right'
p39
aa(lp40
I2
aF38.165804147720337
aS'left'
p41
aa(lp42
I2
aF65.371896982192993
aS'right'
p43
aa(lp44
I2
aF83.486479997634888
aS'left'
p45
aa(lp46
I2
aF85.304656028747559
aS'left'
p47
aa(lp48
I2
aF117.1317241191864
aS'right'
p49
aas.