(dp1
S'responses'
p2
(lp3
(lp4
I0
aF0.87818789482116699
aS'right'
p5
aa(lp6
I0
aF14.94115686416626
aS'left'
p7
aa(lp8
I0
aF108.49206495285034
aS'right'
p9
aa(lp10
I0
aF120.03507995605469
aS'left'
p11
aa(lp12
I1
aF0.90978312492370605
aS'left'
p13
aa(lp14
I1
aF20.344774961471558
aS'right'
p15
aa(lp16
I1
aF54.140620946884155
aS'left'
p17
aa(lp18
I1
aF86.937409162521362
aS'right'
p19
aa(lp20
I1
aF102.11695599555969
aS'left'
p21
aa(lp22
I1
aF119.53276610374451
aS'right'
p23
aa(lp24
I2
aF0.80652499198913574
aS'right'
p25
aa(lp26
I2
aF7.5302150249481201
aS'left'
p27
aa(lp28
I2
aF30.300595998764038
aS'right'
p29
aa(lp30
I2
aF71.47110390663147
aS'left'
p31
aa(lp32
I2
aF95.524944067001343
aS'right'
p33
aa(lp34
I2
aF96.158933877944946
aS'left'
p35
aa(lp36
I2
aF100.57965087890625
aS'right'
p37
aas.