(dp1
S'responses'
p2
(lp3
(lp4
I-1
aF1.4083588123321533
aS'right'
p5
aa(lp6
I-1
aF12.551836013793945
aS'left'
p7
aa(lp8
I-1
aF20.842278957366943
aS'right'
p9
aa(lp10
I0
aF0.93074297904968262
aS'right'
p11
aa(lp12
I0
aF12.341080904006958
aS'left'
p13
aa(lp14
I0
aF20.982187032699585
aS'right'
p15
aa(lp16
I0
aF33.826472043991089
aS'left'
p17
aa(lp18
I0
aF44.851691007614136
aS'right'
p19
aa(lp20
I0
aF58.146425008773804
aS'left'
p21
aa(lp22
I0
aF68.905385971069336
aS'right'
p23
aa(lp24
I0
aF78.013289928436279
aS'left'
p25
aa(lp26
I0
aF86.954659938812256
aS'right'
p27
aa(lp28
I0
aF97.579675912857056
aS'left'
p29
aa(lp30
I0
aF111.44133400917053
aS'right'
p31
aas.