(dp1
S'responses'
p2
(lp3
(lp4
I0
aF1.2281529903411865
aS'right'
p5
aa(lp6
I0
aF5.6986279487609863
aS'left'
p7
aa(lp8
I0
aF9.5517270565032959
aS'right'
p9
aa(lp10
I0
aF13.955656051635742
aS'left'
p11
aa(lp12
I0
aF16.107049942016602
aS'right'
p13
aa(lp14
I0
aF18.29217791557312
aS'left'
p15
aa(lp16
I0
aF20.494457960128784
aS'right'
p17
aa(lp18
I0
aF22.946889877319336
aS'left'
p19
aa(lp20
I0
aF24.381304979324341
aS'right'
p21
aa(lp22
I0
aF30.369240045547485
aS'left'
p23
aa(lp24
I0
aF36.207627058029175
aS'right'
p25
aa(lp26
I0
aF45.832417964935303
aS'left'
p27
aa(lp28
I0
aF48.250830888748169
aS'right'
p29
aa(lp30
I0
aF62.113476991653442
aS'left'
p31
aa(lp32
I0
aF73.255621910095215
aS'right'
p33
aa(lp34
I0
aF82.564312934875488
aS'left'
p35
aa(lp36
I0
aF91.655377864837646
aS'right'
p37
aa(lp38
I0
aF105.76609706878662
aS'left'
p39
aa(lp40
I0
aF108.50222301483154
aS'right'
p41
aa(lp42
I1
aF0.95591998100280762
aS'right'
p43
aa(lp44
I1
aF8.1619040966033936
aS'left'
p45
aa(lp46
I1
aF14.217391014099121
aS'right'
p47
aa(lp48
I1
aF23.659482955932617
aS'left'
p49
aa(lp50
I1
aF50.114115953445435
aS'right'
p51
aa(lp52
I1
aF68.3299560546875
aS'left'
p53
aa(lp54
I2
aF1.0996921062469482
aS'left'
p55
aa(lp56
I2
aF6.0550570487976074
aS'right'
p57
aa(lp58
I2
aF11.425615072250366
aS'left'
p59
aa(lp60
I2
aF21.634697198867798
aS'right'
p61
aa(lp62
I2
aF31.542303085327148
aS'left'
p63
aa(lp64
I2
aF38.515594005584717
aS'right'
p65
aa(lp66
I2
aF51.426758050918579
aS'left'
p67
aa(lp68
I2
aF63.153218030929565
aS'right'
p69
aa(lp70
I2
aF67.506867170333862
aS'left'
p71
aa(lp72
I2
aF73.861665010452271
aS'right'
p73
aa(lp74
I2
aF83.636731147766113
aS'left'
p75
aa(lp76
I2
aF86.77246618270874
aS'right'
p77
aa(lp78
I2
aF92.277575016021729
aS'left'
p79
aa(lp80
I2
aF96.463991165161133
aS'right'
p81
aa(lp82
I2
aF97.798703193664551
aS'left'
p83
aa(lp84
I2
aF102.35257720947266
aS'right'
p85
aa(lp86
I2
aF112.12779402732849
aS'left'
p87
aas.