(dp1
S'responses'
p2
(lp3
(lp4
I0
aF1.2685790061950684
aS'left'
p5
aa(lp6
I0
aF4.78849196434021
aS'right'
p7
aa(lp8
I0
aF6.8229138851165771
aS'left'
p9
aa(lp10
I0
aF9.4919021129608154
aS'right'
p11
aa(lp12
I0
aF10.743618965148926
aS'left'
p13
aa(lp14
I0
aF12.261374950408936
aS'right'
p15
aa(lp16
I0
aF15.013067960739136
aS'left'
p17
aa(lp18
I0
aF17.315871953964233
aS'right'
p19
aa(lp20
I0
aF20.368123054504395
aS'right'
p21
aa(lp22
I0
aF28.325608015060425
aS'left'
p23
aa(lp24
I0
aF37.216970920562744
aS'right'
p25
aa(lp26
I0
aF43.688671112060547
aS'left'
p27
aa(lp28
I0
aF47.97656512260437
aS'right'
p29
aa(lp30
I0
aF55.649166107177734
aS'left'
p31
aa(lp32
I0
aF69.812171936035156
aS'right'
p33
aa(lp34
I0
aF74.633003950119019
aS'right'
p35
aa(lp36
I0
aF80.120989084243774
aS'right'
p37
aa(lp38
I0
aF111.66584205627441
aS'left'
p39
aa(lp40
I1
aF2.4199960231781006
aS'left'
p41
aa(lp42
I1
aF20.118327140808105
aS'right'
p43
aa(lp44
I1
aF41.304409980773926
aS'right'
p45
aa(lp46
I1
aF43.155800104141235
aS'left'
p47
aa(lp48
I1
aF55.032608985900879
aS'right'
p49
aa(lp50
I1
aF58.418952941894531
aS'left'
p51
aa(lp52
I1
aF60.136665105819702
aS'right'
p53
aa(lp54
I1
aF71.480134010314941
aS'left'
p55
aa(lp56
I1
aF75.834087133407593
aS'left'
p57
aa(lp58
I1
aF83.457447052001953
aS'right'
p59
aa(lp60
I1
aF97.236432075500488
aS'right'
p61
aa(lp62
I1
aF102.84186005592346
aS'left'
p63
aa(lp64
I1
aF108.54600310325623
aS'left'
p65
aa(lp66
I1
aF112.66730999946594
aS'left'
p67
aa(lp68
I1
aF115.53599309921265
aS'left'
p69
aa(lp70
I1
aF117.4537410736084
aS'right'
p71
aa(lp72
I2
aF1.0257270336151123
aS'right'
p73
aa(lp74
I2
aF6.2301850318908691
aS'left'
p75
aa(lp76
I2
aF8.4155709743499756
aS'left'
p77
aa(lp78
I2
aF18.72489595413208
aS'right'
p79
aa(lp80
I2
aF33.020190000534058
aS'right'
p81
aa(lp82
I2
aF36.440062999725342
aS'left'
p83
aa(lp84
I2
aF44.680383920669556
aS'left'
p85
aa(lp86
I2
aF47.583339929580688
aS'left'
p87
aa(lp88
I2
aF53.57172703742981
aS'right'
p89
aa(lp90
I2
aF55.089859008789062
aS'left'
p91
aa(lp92
I2
aF58.293275833129883
aS'right'
p93
aa(lp94
I2
aF60.177497863769531
aS'left'
p95
aa(lp96
I2
aF62.396121978759766
aS'left'
p97
aa(lp98
I2
aF64.21456503868103
aS'right'
p99
aa(lp100
I2
aF74.757711887359619
aS'right'
p101
aa(lp102
I2
aF78.109797954559326
aS'left'
p103
aa(lp104
I2
aF83.514410018920898
aS'right'
p105
aa(lp106
I2
aF95.192544937133789
aS'right'
p107
aa(lp108
I2
aF108.50319004058838
aS'right'
p109
aa(lp110
I2
aF110.0043408870697
aS'right'
p111
aas.