(dp1
S'responses'
p2
(lp3
(lp4
I0
aF1.1290149688720703
aS'right'
p5
aa(lp6
I0
aF6.3665249347686768
aS'left'
p7
aa(lp8
I0
aF11.670862913131714
aS'right'
p9
aa(lp10
I0
aF18.410699844360352
aS'left'
p11
aa(lp12
I0
aF39.04557204246521
aS'right'
p13
aa(lp14
I0
aF50.538554906845093
aS'left'
p15
aa(lp16
I0
aF64.567507982254028
aS'right'
p17
aa(lp18
I0
aF73.959404945373535
aS'left'
p19
aa(lp20
I0
aF79.147390842437744
aS'right'
p21
aa(lp22
I0
aF83.234485864639282
aS'left'
p23
aa(lp24
I0
aF96.396041870117188
aS'right'
p25
aa(lp26
I0
aF103.25215983390808
aS'left'
p27
aa(lp28
I0
aF104.43660187721252
aS'right'
p29
aa(lp30
I0
aF107.23978900909424
aS'left'
p31
aa(lp32
I0
aF112.97748589515686
aS'right'
p33
aa(lp34
I1
aF1.4583539962768555
aS'right'
p35
aa(lp36
I1
aF3.1602010726928711
aS'left'
p37
aa(lp38
I1
aF8.5318820476531982
aS'right'
p39
aa(lp40
I1
aF11.701090097427368
aS'left'
p41
aa(lp42
I1
aF16.372167110443115
aS'right'
p43
aa(lp44
I1
aF17.905903100967407
aS'left'
p45
aa(lp46
I1
aF20.058184146881104
aS'right'
p47
aa(lp48
I1
aF21.97664213180542
aS'left'
p49
aa(lp50
I1
aF24.346272230148315
aS'right'
p51
aa(lp52
I1
aF26.630799055099487
aS'left'
p53
aa(lp54
I1
aF38.85847020149231
aS'left'
p55
aa(lp56
I1
aF39.70890212059021
aS'right'
p57
aa(lp58
I1
aF47.766457080841064
aS'left'
p59
aa(lp60
I1
aF56.190694093704224
aS'right'
p61
aa(lp62
I1
aF69.920135021209717
aS'left'
p63
aa(lp64
I1
aF83.71498703956604
aS'right'
p65
aa(lp66
I1
aF88.602666139602661
aS'left'
p67
aa(lp68
I1
aF94.058245182037354
aS'right'
p69
aa(lp70
I1
aF97.860400199890137
aS'left'
p71
aa(lp72
I1
aF111.89022517204285
aS'right'
p73
aa(lp74
I2
aF2.0664231777191162
aS'left'
p75
aa(lp76
I2
aF3.9011931419372559
aS'right'
p77
aa(lp78
I2
aF5.9876611232757568
aS'left'
p79
aa(lp80
I2
aF18.230799198150635
aS'right'
p81
aa(lp82
I2
aF21.984189033508301
aS'left'
p83
aa(lp84
I2
aF28.75682806968689
aS'right'
p85
aa(lp86
I2
aF44.371270179748535
aS'left'
p87
aa(lp88
I2
aF61.203214168548584
aS'right'
p89
aa(lp90
I2
aF74.631239175796509
aS'left'
p91
aa(lp92
I2
aF77.050148010253906
aS'right'
p93
aa(lp94
I2
aF80.086366176605225
aS'left'
p95
aa(lp96
I2
aF83.472023010253906
aS'right'
p97
aa(lp98
I2
aF100.33773398399353
aS'left'
p99
aa(lp100
I2
aF101.63927507400513
aS'right'
p101
aa(lp102
I2
aF103.13958621025085
aS'left'
p103
aa(lp104
I2
aF107.79404020309448
aS'right'
p105
aas.