(dp1
S'responses'
p2
(lp3
(lp4
I0
aF1.3960871696472168
aS'left'
p5
aa(lp6
I0
aF8.568789005279541
aS'right'
p7
aa(lp8
I0
aF17.242865085601807
aS'left'
p9
aa(lp10
I0
aF23.598994970321655
aS'right'
p11
aa(lp12
I0
aF34.608016014099121
aS'left'
p13
aa(lp14
I0
aF43.94918417930603
aS'right'
p15
aa(lp16
I0
aF54.524862051010132
aS'left'
p17
aa(lp18
I0
aF66.468862056732178
aS'right'
p19
aa(lp20
I0
aF72.5416259765625
aS'left'
p21
aa(lp22
I0
aF74.91005802154541
aS'right'
p23
aa(lp24
I0
aF80.265043020248413
aS'left'
p25
aa(lp26
I0
aF81.966114044189453
aS'right'
p27
aa(lp28
I0
aF83.968116044998169
aS'left'
p29
aa(lp30
I0
aF86.60352897644043
aS'right'
p31
aa(lp32
I0
aF88.554656982421875
aS'left'
p33
aa(lp34
I0
aF90.073215961456299
aS'right'
p35
aa(lp36
I0
aF99.464205980300903
aS'left'
p37
aa(lp38
I0
aF104.65218615531921
aS'right'
p39
aa(lp40
I0
aF108.93940615653992
aS'left'
p41
aa(lp42
I0
aF111.84235906600952
aS'right'
p43
aa(lp44
I0
aF119.19800400733948
aS'left'
p45
aa(lp46
I1
aF0.90788602828979492
aS'left'
p47
aa(lp48
I1
aF11.199326038360596
aS'right'
p49
aa(lp50
I1
aF19.323652982711792
aS'left'
p51
aa(lp52
I1
aF23.960219144821167
aS'right'
p53
aa(lp54
I1
aF33.335661172866821
aS'left'
p55
aa(lp56
I1
aF43.910891056060791
aS'right'
p57
aa(lp58
I1
aF60.408553123474121
aS'left'
p59
aa(lp60
I1
aF74.271157026290894
aS'right'
p61
aa(lp62
I1
aF112.32011413574219
aS'left'
p63
aa(lp64
I2
aF0.98678994178771973
aS'right'
p65
aa(lp66
I2
aF15.633275985717773
aS'left'
p67
aa(lp68
I2
aF30.829064130783081
aS'right'
p69
aa(lp70
I2
aF45.559351921081543
aS'left'
p71
aa(lp72
I2
aF62.673818111419678
aS'right'
p73
aa(lp74
I2
aF79.137874126434326
aS'left'
p75
aa(lp76
I2
aF100.23911809921265
aS'right'
p77
aas.