(dp1
S'responses'
p2
(lp3
(lp4
I-1
aF11.887495994567871
aS'right'
p5
aa(lp6
I-1
aF15.473883152008057
aS'left'
p7
aa(lp8
I0
aF2.2248671054840088
aS'right'
p9
aa(lp10
I0
aF12.150392055511475
aS'left'
p11
aa(lp12
I0
aF20.874186038970947
aS'right'
p13
aa(lp14
I0
aF33.870048046112061
aS'left'
p15
aa(lp16
I0
aF45.16247296333313
aS'right'
p17
aa(lp18
I0
aF58.258134126663208
aS'left'
p19
aa(lp20
I0
aF68.967970132827759
aS'right'
p21
aa(lp22
I0
aF77.992897987365723
aS'left'
p23
aa(lp24
I0
aF87.300336122512817
aS'right'
p25
aa(lp26
I0
aF98.043727159500122
aS'left'
p27
aa(lp28
I0
aF111.13814210891724
aS'right'
p29
aas.