(dp1
S'responses'
p2
(lp3
(lp4
I0
aF0.93071413040161133
aS'right'
p5
aa(lp6
I0
aF3.7517881393432617
aS'left'
p7
aa(lp8
I0
aF3.968684196472168
aS'left'
p9
aa(lp10
I0
aF9.5233380794525146
aS'right'
p11
aa(lp12
I0
aF14.576743125915527
aS'left'
p13
aa(lp14
I0
aF23.318150043487549
aS'right'
p15
aa(lp16
I0
aF30.440493106842041
aS'left'
p17
aa(lp18
I0
aF41.834177017211914
aS'right'
p19
aa(lp20
I0
aF50.174018144607544
aS'left'
p21
aa(lp22
I0
aF59.782082080841064
aS'right'
p23
aa(lp24
I0
aF62.818496227264404
aS'left'
p25
aa(lp26
I0
aF67.621759176254272
aS'right'
p27
aa(lp28
I0
aF77.830737113952637
aS'left'
p29
aa(lp30
I0
aF84.520084142684937
aS'right'
p31
aa(lp32
I0
aF89.974008083343506
aS'left'
p33
aa(lp34
I0
aF102.33443117141724
aS'right'
p35
aa(lp36
I0
aF109.52372121810913
aS'left'
p37
aa(lp38
I0
aF112.59397315979004
aS'right'
p39
aa(lp40
I0
aF115.26234912872314
aS'left'
p41
aa(lp42
I0
aF117.06372809410095
aS'right'
p43
aa(lp44
I1
aF2.17181396484375
aS'left'
p45
aa(lp46
I1
aF9.5620999336242676
aS'right'
p47
aa(lp48
I1
aF16.984538078308105
aS'left'
p49
aa(lp50
I1
aF24.907555103302002
aS'right'
p51
aa(lp52
I1
aF29.995454072952271
aS'left'
p53
aa(lp54
I1
aF35.733721971511841
aS'right'
p55
aa(lp56
I1
aF42.556329965591431
aS'left'
p57
aa(lp58
I1
aF45.175442934036255
aS'right'
p59
aa(lp60
I1
aF46.675878047943115
aS'left'
p61
aa(lp62
I1
aF48.277720928192139
aS'right'
p63
aa(lp64
I1
aF54.383424043655396
aS'left'
p65
aa(lp66
I1
aF58.003101110458374
aS'right'
p67
aa(lp68
I1
aF61.872148990631104
aS'left'
p69
aa(lp70
I1
aF66.859586000442505
aS'right'
p71
aa(lp72
I1
aF69.595108985900879
aS'left'
p73
aa(lp74
I1
aF83.840981960296631
aS'right'
p75
aa(lp76
I1
aF102.45641112327576
aS'left'
p77
aa(lp78
I1
aF116.6016309261322
aS'right'
p79
aa(lp80
I2
aF2.7088220119476318
aS'right'
p81
aa(lp82
I2
aF12.917834997177124
aS'left'
p83
aa(lp84
I2
aF24.010414838790894
aS'right'
p85
aa(lp86
I2
aF35.820539951324463
aS'left'
p87
aa(lp88
I2
aF41.291432857513428
aS'right'
p89
aa(lp90
I2
aF45.662118911743164
aS'left'
p91
aa(lp92
I2
aF54.570122003555298
aS'right'
p93
aa(lp94
I2
aF58.005452871322632
aS'left'
p95
aa(lp96
I2
aF60.607821941375732
aS'right'
p97
aa(lp98
I2
aF66.096431016921997
aS'left'
p99
aa(lp100
I2
aF68.11395001411438
aS'right'
p101
aa(lp102
I2
aF76.405356884002686
aS'left'
p103
aa(lp104
I2
aF79.774528026580811
aS'right'
p105
aa(lp106
I2
aF101.69315695762634
aS'left'
p107
aas.