(dp1
S'responses'
p2
(lp3
(lp4
I0
aF0.68207287788391113
aS'right'
p5
aa(lp6
I0
aF6.1207590103149414
aS'left'
p7
aa(lp8
I0
aF13.043469905853271
aS'right'
p9
aa(lp10
I0
aF25.303998947143555
aS'left'
p11
aa(lp12
I0
aF32.393357992172241
aS'right'
p13
aa(lp14
I0
aF39.115991830825806
aS'left'
p15
aa(lp16
I0
aF46.071893930435181
aS'right'
p17
aa(lp18
I0
aF51.659938812255859
aS'left'
p19
aa(lp20
I0
aF54.512966871261597
aS'right'
p21
aa(lp22
I0
aF61.986462831497192
aS'left'
p23
aa(lp24
I0
aF68.908608913421631
aS'right'
p25
aa(lp26
I0
aF74.964793920516968
aS'left'
p27
aa(lp28
I0
aF92.380232810974121
aS'right'
p29
aa(lp30
I0
aF104.70679783821106
aS'left'
p31
aa(lp32
I0
aF115.43338489532471
aS'right'
p33
aa(lp34
I1
aF1.1657810211181641
aS'left'
p35
aa(lp36
I1
aF3.9351539611816406
aS'right'
p37
aa(lp38
I1
aF6.1033728122711182
aS'left'
p39
aa(lp40
I1
aF14.11048698425293
aS'left'
p41
aa(lp42
I1
aF15.54589581489563
aS'right'
p43
aa(lp44
I1
aF17.280030012130737
aS'left'
p45
aa(lp46
I1
aF23.78536581993103
aS'right'
p47
aa(lp48
I1
aF29.440847873687744
aS'left'
p49
aa(lp50
I1
aF35.696087837219238
aS'right'
p51
aa(lp52
I1
aF39.365795850753784
aS'left'
p53
aa(lp54
I1
aF42.185045003890991
aS'right'
p55
aa(lp56
I1
aF46.722538948059082
aS'left'
p57
aa(lp58
I1
aF52.744330883026123
aS'right'
p59
aa(lp60
I1
aF56.281503915786743
aS'left'
p61
aa(lp62
I1
aF61.085041999816895
aS'right'
p63
aa(lp64
I1
aF66.256253004074097
aS'left'
p65
aa(lp66
I1
aF79.000778913497925
aS'right'
p67
aa(lp68
I1
aF93.496785879135132
aS'left'
p69
aa(lp70
I1
aF100.97071099281311
aS'right'
p71
aa(lp72
I1
aF111.42921590805054
aS'left'
p73
aa(lp74
I1
aF116.73392486572266
aS'right'
p75
aa(lp76
I1
aF118.06816387176514
aS'left'
p77
aa(lp78
I2
aF1.0276718139648438
aS'right'
p79
aa(lp80
I2
aF6.7993969917297363
aS'left'
p81
aa(lp82
I2
aF11.703356981277466
aS'right'
p83
aa(lp84
I2
aF18.942808866500854
aS'left'
p85
aa(lp86
I2
aF21.562023878097534
aS'right'
p87
aa(lp88
I2
aF31.754456043243408
aS'left'
p89
aa(lp90
I2
aF39.344238996505737
aS'right'
p91
aa(lp92
I2
aF45.866412878036499
aS'left'
p93
aa(lp94
I2
aF53.722813844680786
aS'right'
p95
aa(lp96
I2
aF57.60965895652771
aS'left'
p97
aa(lp98
I2
aF63.348639011383057
aS'right'
p99
aa(lp100
I2
aF66.401260852813721
aS'left'
p101
aa(lp102
I2
aF76.493742942810059
aS'right'
p103
aa(lp104
I2
aF82.064880847930908
aS'left'
p105
aa(lp106
I2
aF113.8259539604187
aS'right'
p107
aas.