(dp1
S'responses'
p2
(lp3
(lp4
I0
aF20.534652948379517
aS'left'
p5
aa(lp6
I0
aF114.26850485801697
aS'right'
p7
aa(lp8
I1
aF4.6636438369750977
aS'left'
p9
aa(lp10
I1
aF54.591692924499512
aS'right'
p11
aa(lp12
I2
aF2.352262020111084
aS'right'
p13
aa(lp14
I2
aF104.74376392364502
aS'left'
p15
aas.