(dp1
S'responses'
p2
(lp3
(lp4
I-1
aF1.6978549957275391
aS'left'
p5
aa(lp6
I-1
aF5.0671460628509521
aS'right'
p7
aa(lp8
I-1
aF12.057301044464111
aS'left'
p9
aa(lp10
I-1
aF24.133651971817017
aS'right'
p11
aa(lp12
I0
aF0.85771894454956055
aS'right'
p13
aa(lp14
I0
aF11.900557041168213
aS'left'
p15
aa(lp16
I0
aF20.641503095626831
aS'right'
p17
aa(lp18
I0
aF29.416205167770386
aS'left'
p19
aa(lp20
I0
aF40.207842111587524
aS'right'
p21
aa(lp22
I0
aF48.615450143814087
aS'left'
p23
aa(lp24
I0
aF56.022016048431396
aS'right'
p25
aa(lp26
I0
aF59.441390991210938
aS'left'
p27
aa(lp28
I0
aF68.516091108322144
aS'right'
p29
aa(lp30
I0
aF78.874962091445923
aS'left'
p31
aa(lp32
I0
aF87.533046007156372
aS'right'
p33
aa(lp34
I0
aF94.956302165985107
aS'left'
p35
aa(lp36
I0
aF107.99992895126343
aS'right'
p37
aa(lp38
I0
aF109.30146193504333
aS'left'
p39
aa(lp40
I0
aF113.17123198509216
aS'right'
p41
aa(lp42
I0
aF118.57604908943176
aS'left'
p43
aas.