(dp1
S'responses'
p2
(lp3
(lp4
I0
aF4.1055519580841064
aS'left'
p5
aa(lp6
I0
aF9.5771229267120361
aS'right'
p7
aa(lp8
I0
aF14.397403955459595
aS'left'
p9
aa(lp10
I0
aF44.372695922851562
aS'left'
p11
aa(lp12
I0
aF56.283028841018677
aS'right'
p13
aa(lp14
I0
aF86.108187913894653
aS'right'
p15
aa(lp16
I0
aF92.247554779052734
aS'left'
p17
aa(lp18
I0
aF104.94156980514526
aS'left'
p19
aa(lp20
I0
aF114.86588287353516
aS'right'
p21
aa(lp22
I1
aF2.1994478702545166
aS'left'
p23
aa(lp24
I1
aF8.2717788219451904
aS'right'
p25
aa(lp26
I1
aF64.102092981338501
aS'right'
p27
aa(lp28
I1
aF78.731732845306396
aS'left'
p29
aa(lp30
I1
aF119.71591091156006
aS'left'
p31
aa(lp32
I2
aF2.6360070705413818
aS'left'
p33
aa(lp34
I2
aF35.530689001083374
aS'right'
p35
aa(lp36
I2
aF52.711657047271729
aS'left'
p37
aa(lp38
I2
aF70.026005029678345
aS'right'
p39
aa(lp40
I2
aF81.553144931793213
aS'left'
p41
aa(lp42
I2
aF91.061073064804077
aS'right'
p43
aa(lp44
I2
aF104.58904194831848
aS'right'
p45
aa(lp46
I2
aF114.41459202766418
aS'left'
p47
aas.