(dp1
S'responses'
p2
(lp3
(lp4
I-1
aF1.6653568744659424
aS'left'
p5
aa(lp6
I-1
aF10.523239850997925
aS'right'
p7
aa(lp8
I-1
aF13.142076015472412
aS'left'
p9
aa(lp10
I-1
aF21.464874029159546
aS'right'
p11
aa(lp12
I0
aF3.1595969200134277
aS'right'
p13
aa(lp14
I0
aF12.367619037628174
aS'left'
p15
aa(lp16
I0
aF21.207547903060913
aS'right'
p17
aa(lp18
I0
aF34.352478981018066
aS'left'
p19
aa(lp20
I0
aF44.910698890686035
aS'right'
p21
aa(lp22
I0
aF58.255994081497192
aS'left'
p23
aa(lp24
I0
aF70.215728044509888
aS'right'
p25
aa(lp26
I0
aF78.556052923202515
aS'left'
p27
aa(lp28
I0
aF91.550251007080078
aS'right'
p29
aa(lp30
I0
aF98.573808908462524
aS'left'
p31
aa(lp32
I0
aF111.08411192893982
aS'right'
p33
aas.