(dp1
S'responses'
p2
(lp3
(lp4
I-1
aF1.1802871227264404
aS'right'
p5
aa(lp6
I-1
aF15.12493896484375
aS'left'
p7
aa(lp8
I-1
aF21.3647620677948
aS'right'
p9
aa(lp10
I-1
aF25.117233991622925
aS'left'
p11
aa(lp12
I-1
aF27.118956089019775
aS'right'
p13
aa(lp14
I0
aF0.7723240852355957
aS'right'
p15
aa(lp16
I0
aF12.115993022918701
aS'left'
p17
aa(lp18
I0
aF21.990986108779907
aS'right'
p19
aa(lp20
I0
aF34.335211992263794
aS'left'
p21
aa(lp22
I0
aF45.311307907104492
aS'right'
p23
aa(lp24
I0
aF55.169937133789062
aS'left'
p25
aa(lp26
I0
aF56.454338073730469
aS'right'
p27
aa(lp28
I0
aF58.106203079223633
aS'left'
p29
aa(lp30
I0
aF69.649277925491333
aS'right'
p31
aa(lp32
I0
aF78.340285062789917
aS'left'
p33
aa(lp34
I0
aF87.448503017425537
aS'right'
p35
aa(lp36
I0
aF93.903495073318481
aS'left'
p37
aa(lp38
I0
aF95.422545909881592
aS'right'
p39
aa(lp40
I0
aF98.641438961029053
aS'left'
p41
aa(lp42
I0
aF110.3854238986969
aS'right'
p43
aas.