(dp1
S'responses'
p2
(lp3
(lp4
I0
aF4.5538010597229004
aS'right'
p5
aa(lp6
I0
aF10.758233070373535
aS'left'
p7
aa(lp8
I0
aF16.147066116333008
aS'left'
p9
aa(lp10
I0
aF17.197900056838989
aS'right'
p11
aa(lp12
I0
aF21.785098075866699
aS'left'
p13
aa(lp14
I0
aF23.70258903503418
aS'right'
p15
aa(lp16
I0
aF36.197483062744141
aS'left'
p17
aa(lp18
I0
aF40.535217046737671
aS'right'
p19
aa(lp20
I0
aF45.139361143112183
aS'left'
p21
aa(lp22
I0
aF51.543997049331665
aS'right'
p23
aa(lp24
I0
aF58.934317111968994
aS'left'
p25
aa(lp26
I0
aF68.675844192504883
aS'right'
p27
aa(lp28
I0
aF82.505066156387329
aS'left'
p29
aa(lp30
I0
aF101.80510997772217
aS'right'
p31
aa(lp32
I0
aF118.83633303642273
aS'left'
p33
aa(lp34
I1
aF4.2002341747283936
aS'right'
p35
aa(lp36
I1
aF31.507487058639526
aS'left'
p37
aa(lp38
I2
aF1.824409008026123
aS'left'
p39
aa(lp40
I2
aF42.39329195022583
aS'right'
p41
aas.