(dp1
S'responses'
p2
(lp3
(lp4
I-1
aF1.8761320114135742
aS'right'
p5
aa(lp6
I-1
aF13.085410833358765
aS'left'
p7
aa(lp8
I-1
aF24.611624956130981
aS'right'
p9
aa(lp10
I0
aF2.1630921363830566
aS'right'
p11
aa(lp12
I0
aF13.472208023071289
aS'left'
p13
aa(lp14
I0
aF21.863057136535645
aS'right'
p15
aa(lp16
I0
aF35.141134977340698
aS'left'
p17
aa(lp18
I0
aF46.633485078811646
aS'right'
p19
aa(lp20
I0
aF59.177464962005615
aS'left'
p21
aa(lp22
I0
aF70.236749172210693
aS'right'
p23
aa(lp24
I0
aF79.61151909828186
aS'left'
p25
aa(lp26
I0
aF88.386569976806641
aS'right'
p27
aa(lp28
I0
aF99.27836799621582
aS'left'
p29
aa(lp30
I0
aF112.639976978302
aS'right'
p31
aas.