(dp1
S'responses'
p2
(lp3
(lp4
I0
aF2.2066278457641602
aS'left'
p5
aa(lp6
I0
aF4.957927942276001
aS'right'
p7
aa(lp8
I0
aF7.244035005569458
aS'left'
p9
aa(lp10
I0
aF9.7791187763214111
aS'right'
p11
aa(lp12
I0
aF13.315802812576294
aS'left'
p13
aa(lp14
I0
aF19.754464864730835
aS'right'
p15
aa(lp16
I0
aF22.574517965316772
aS'left'
p17
aa(lp18
I0
aF25.092535972595215
aS'right'
p19
aa(lp20
I0
aF28.228784799575806
aS'left'
p21
aa(lp22
I0
aF31.94855785369873
aS'right'
p23
aa(lp24
I0
aF38.78905200958252
aS'left'
p25
aa(lp26
I0
aF46.04441499710083
aS'right'
p27
aa(lp28
I0
aF54.768765926361084
aS'left'
p29
aa(lp30
I0
aF64.327901840209961
aS'right'
p31
aa(lp32
I0
aF70.266555786132812
aS'left'
p33
aa(lp34
I0
aF86.797720909118652
aS'right'
p35
aa(lp36
I0
aF93.052572965621948
aS'left'
p37
aa(lp38
I0
aF96.305208921432495
aS'right'
p39
aa(lp40
I0
aF101.04362893104553
aS'left'
p41
aa(lp42
I0
aF101.96103096008301
aS'right'
p43
aa(lp44
I0
aF103.06193900108337
aS'left'
p45
aa(lp46
I0
aF104.4630298614502
aS'right'
p47
aa(lp48
I0
aF105.64777898788452
aS'left'
p49
aa(lp50
I1
aF2.1689839363098145
aS'left'
p51
aa(lp52
I1
aF6.9064419269561768
aS'right'
p53
aa(lp54
I1
aF9.7258870601654053
aS'left'
p55
aa(lp56
I1
aF15.964920997619629
aS'right'
p57
aa(lp58
I1
aF24.354938983917236
aS'left'
p59
aa(lp60
I1
aF28.442483901977539
aS'right'
p61
aa(lp62
I1
aF29.759577989578247
aS'left'
p63
aa(lp64
I1
aF31.194279909133911
aS'right'
p65
aa(lp66
I1
aF32.295664072036743
aS'left'
p67
aa(lp68
I1
aF55.032387971878052
aS'right'
p69
aa(lp70
I1
aF73.381731033325195
aS'left'
p71
aa(lp72
I1
aF94.817641973495483
aS'right'
p73
aa(lp74
I1
aF101.97406101226807
aS'left'
p75
aa(lp76
I1
aF107.14484691619873
aS'right'
p77
aa(lp78
I2
aF1.6376359462738037
aS'left'
p79
aa(lp80
I2
aF11.329308986663818
aS'right'
p81
aa(lp82
I2
aF22.155783891677856
aS'left'
p83
aa(lp84
I2
aF51.632236003875732
aS'right'
p85
aa(lp86
I2
aF77.287437915802002
aS'left'
p87
aa(lp88
I2
aF88.981706857681274
aS'right'
p89
aa(lp90
I2
aF102.99353384971619
aS'left'
p91
aa(lp92
I2
aF111.43450903892517
aS'right'
p93
aas.