(dp1
S'responses'
p2
(lp3
(lp4
I0
aF1.6706571578979492
aS'right'
p5
aa(lp6
I0
aF4.5068039894104004
aS'left'
p7
aa(lp8
I0
aF13.413926124572754
aS'right'
p9
aa(lp10
I0
aF17.984421968460083
aS'left'
p11
aa(lp12
I0
aF19.969366073608398
aS'right'
p13
aa(lp14
I0
aF21.30425500869751
aS'left'
p15
aa(lp16
I0
aF22.304373979568481
aS'right'
p17
aa(lp18
I0
aF23.639114141464233
aS'left'
p19
aa(lp20
I0
aF25.474210023880005
aS'left'
p21
aa(lp22
I0
aF26.6754310131073
aS'right'
p23
aa(lp24
I0
aF28.176021099090576
aS'left'
p25
aa(lp26
I0
aF31.963659048080444
aS'right'
p27
aa(lp28
I0
aF38.535039186477661
aS'left'
p29
aa(lp30
I0
aF44.606504201889038
aS'left'
p31
aa(lp32
I0
aF45.691503047943115
aS'right'
p33
aa(lp34
I0
aF46.825345993041992
aS'left'
p35
aa(lp36
I0
aF48.059597969055176
aS'right'
p37
aa(lp38
I0
aF49.0781090259552
aS'left'
p39
aa(lp40
I0
aF49.878093004226685
aS'right'
p41
aa(lp42
I0
aF51.14542818069458
aS'left'
p43
aa(lp44
I0
aF52.64688515663147
aS'right'
p45
aa(lp46
I0
aF54.065464019775391
aS'left'
p47
aa(lp48
I0
aF56.466426134109497
aS'right'
p49
aa(lp50
I0
aF57.668379068374634
aS'left'
p51
aa(lp52
I0
aF59.169098138809204
aS'right'
p53
aa(lp54
I0
aF61.839061975479126
aS'left'
p55
aa(lp56
I0
aF62.455936193466187
aS'right'
p57
aa(lp58
I0
aF65.607923030853271
aS'left'
p59
aa(lp60
I0
aF68.810362100601196
aS'right'
p61
aa(lp62
I0
aF69.611085176467896
aS'left'
p63
aa(lp64
I0
aF71.646173000335693
aS'right'
p65
aa(lp66
I0
aF72.413743019104004
aS'left'
p67
aa(lp68
I0
aF73.581443071365356
aS'right'
p69
aa(lp70
I0
aF74.398781061172485
aS'left'
p71
aa(lp72
I0
aF75.949880123138428
aS'right'
p73
aa(lp74
I0
aF77.485643148422241
aS'left'
p75
aa(lp76
I0
aF79.93700098991394
aS'right'
p77
aa(lp78
I0
aF82.372696161270142
aS'left'
p79
aa(lp80
I0
aF83.53966212272644
aS'right'
p81
aa(lp82
I0
aF85.091724157333374
aS'left'
p83
aa(lp84
I0
aF88.77840518951416
aS'right'
p85
aa(lp86
I0
aF91.513190984725952
aS'right'
p87
aa(lp88
I0
aF92.614777088165283
aS'left'
p89
aa(lp90
I0
aF94.165240049362183
aS'right'
p91
aa(lp92
I0
aF96.017291069030762
aS'right'
p93
aa(lp94
I0
aF97.718881130218506
aS'right'
p95
aa(lp96
I0
aF99.786733150482178
aS'left'
p97
aa(lp98
I0
aF101.88912200927734
aS'right'
p99
aa(lp100
I0
aF107.04324102401733
aS'left'
p101
aa(lp102
I0
aF117.08495903015137
aS'left'
p103
aa(lp104
I0
aF118.43670201301575
aS'right'
p105
aa(lp106
I0
aF119.07071805000305
aS'left'
p107
aa(lp108
I0
aF120.03729009628296
aS'right'
p109
aa(lp110
I1
aF1.1350908279418945
aS'right'
p111
aa(lp112
I1
aF4.1372559070587158
aS'left'
p113
aa(lp114
I1
aF5.0711009502410889
aS'right'
p115
aa(lp116
I1
aF5.9050719738006592
aS'left'
p117
aa(lp118
I1
aF6.4723069667816162
aS'right'
p119
aa(lp120
I1
aF7.372920036315918
aS'left'
p121
aa(lp122
I1
aF10.610092878341675
aS'right'
p123
aa(lp124
I1
aF11.460438013076782
aS'left'
p125
aa(lp126
I1
aF12.410747051239014
aS'right'
p127
aa(lp128
I1
aF14.796041011810303
aS'left'
p129
aa(lp130
I1
aF16.614886999130249
aS'right'
p131
aa(lp132
I1
aF17.682142972946167
aS'left'
p133
aa(lp134
I1
aF22.669364929199219
aS'right'
p135
aa(lp136
I1
aF25.4391770362854
aS'left'
p137
aa(lp138
I1
aF26.840329885482788
aS'right'
p139
aa(lp140
I1
aF27.389929056167603
aS'left'
p141
aa(lp142
I1
aF28.007056951522827
aS'right'
p143
aa(lp144
I1
aF28.842244863510132
aS'left'
p145
aa(lp146
I1
aF30.760477066040039
aS'right'
p147
aa(lp148
I1
aF35.697105884552002
aS'left'
p149
aa(lp150
I1
aF44.13831901550293
aS'right'
p151
aa(lp152
I1
aF44.838860034942627
aS'left'
p153
aa(lp154
I1
aF48.408279895782471
aS'right'
p155
aa(lp156
I1
aF50.32726001739502
aS'left'
p157
aa(lp158
I1
aF51.961082935333252
aS'right'
p159
aa(lp160
I1
aF52.545212984085083
aS'left'
p161
aa(lp162
I1
aF54.446914911270142
aS'right'
p163
aa(lp164
I1
aF55.964437007904053
aS'left'
p165
aa(lp166
I1
aF56.564592838287354
aS'right'
p167
aa(lp168
I1
aF60.351419925689697
aS'left'
p169
aa(lp170
I1
aF60.968874931335449
aS'right'
p171
aa(lp172
I1
aF61.886461973190308
aS'left'
p173
aa(lp174
I1
aF64.30479097366333
aS'right'
p175
aa(lp176
I1
aF66.106703042984009
aS'left'
p177
aa(lp178
I1
aF68.091423988342285
aS'right'
p179
aa(lp180
I1
aF69.276454925537109
aS'left'
p181
aa(lp182
I1
aF69.960120916366577
aS'right'
p183
aa(lp184
I1
aF72.679159879684448
aS'left'
p185
aa(lp186
I1
aF75.681902885437012
aS'right'
p187
aa(lp188
I1
aF77.583276987075806
aS'left'
p189
aa(lp190
I1
aF79.601135015487671
aS'right'
p191
aa(lp192
I1
aF80.56866192817688
aS'left'
p193
aa(lp194
I1
aF83.905030965805054
aS'right'
p195
aa(lp196
I1
aF84.855577945709229
aS'left'
p197
aa(lp198
I1
aF87.908428907394409
aS'right'
p199
aa(lp200
I1
aF88.626365900039673
aS'left'
p201
aa(lp202
I1
aF90.410191059112549
aS'right'
p203
aa(lp204
I1
aF92.695567846298218
aS'left'
p205
aa(lp206
I1
aF94.380220890045166
aS'left'
p207
aa(lp208
I1
aF96.499209880828857
aS'right'
p209
aa(lp210
I1
aF99.651455879211426
aS'left'
p211
aa(lp212
I1
aF101.50383496284485
aS'right'
p213
aa(lp214
I1
aF104.85586500167847
aS'right'
p215
aa(lp216
I1
aF106.72443699836731
aS'left'
p217
aa(lp218
I1
aF108.32517099380493
aS'right'
p219
aa(lp220
I1
aF109.22630596160889
aS'left'
p221
aa(lp222
I1
aF109.75998497009277
aS'right'
p223
aa(lp224
I1
aF111.32806205749512
aS'left'
p225
aa(lp226
I1
aF112.22860383987427
aS'right'
p227
aa(lp228
I1
aF118.01681900024414
aS'left'
p229
aa(lp230
I2
aF0.92148184776306152
aS'left'
p231
aa(lp232
I2
aF3.3575699329376221
aS'right'
p233
aa(lp234
I2
aF14.467759847640991
aS'left'
p235
aa(lp236
I2
aF25.909542798995972
aS'right'
p237
aa(lp238
I2
aF33.55024790763855
aS'left'
p239
aa(lp240
I2
aF42.257040023803711
aS'right'
p241
aa(lp242
I2
aF51.865803956985474
aS'left'
p243
aa(lp244
I2
aF61.022696971893311
aS'right'
p245
aa(lp246
I2
aF66.461465835571289
aS'left'
p247
aa(lp248
I2
aF69.162721872329712
aS'right'
p249
aa(lp250
I2
aF80.822929859161377
aS'left'
p251
aa(lp252
I2
aF95.185204982757568
aS'right'
p253
aa(lp254
I2
aF100.68976283073425
aS'left'
p255
aa(lp256
I2
aF107.96262192726135
aS'right'
p257
aas.