(dp1
S'responses'
p2
(lp3
(lp4
I0
aF1.2293360233306885
aS'right'
p5
aa(lp6
I0
aF6.3843629360198975
aS'left'
p7
aa(lp8
I0
aF16.091933965682983
aS'right'
p9
aa(lp10
I0
aF22.913964033126831
aS'left'
p11
aa(lp12
I0
aF28.151749849319458
aS'right'
p13
aa(lp14
I0
aF30.570376873016357
aS'left'
p15
aa(lp16
I0
aF32.405699014663696
aS'right'
p17
aa(lp18
I0
aF34.440898895263672
aS'left'
p19
aa(lp20
I0
aF35.942095994949341
aS'right'
p21
aa(lp22
I0
aF38.11023998260498
aS'left'
p23
aa(lp24
I0
aF40.211954832077026
aS'right'
p25
aa(lp26
I0
aF42.063627004623413
aS'left'
p27
aa(lp28
I0
aF44.11573600769043
aS'right'
p29
aa(lp30
I0
aF45.917173862457275
aS'left'
p31
aa(lp32
I0
aF48.385929822921753
aS'right'
p33
aa(lp34
I0
aF50.021081924438477
aS'left'
p35
aa(lp36
I0
aF52.006318807601929
aS'right'
p37
aa(lp38
I0
aF53.890895843505859
aS'left'
p39
aa(lp40
I0
aF56.359935998916626
aS'right'
p41
aa(lp42
I0
aF58.244114875793457
aS'left'
p43
aa(lp44
I0
aF60.162281036376953
aS'right'
p45
aa(lp46
I0
aF62.130537033081055
aS'left'
p47
aa(lp48
I0
aF63.932196855545044
aS'right'
p49
aa(lp50
I0
aF67.285799980163574
aS'right'
p51
aa(lp52
I0
aF70.053928852081299
aS'left'
p53
aa(lp54
I0
aF72.055725812911987
aS'right'
p55
aa(lp56
I0
aF74.057155847549438
aS'left'
p57
aa(lp58
I0
aF76.526347875595093
aS'right'
p59
aa(lp60
I0
aF78.21074390411377
aS'left'
p61
aa(lp62
I0
aF79.995505809783936
aS'right'
p63
aa(lp64
I0
aF81.980862855911255
aS'left'
p65
aa(lp66
I0
aF83.949090957641602
aS'right'
p67
aa(lp68
I0
aF85.901738882064819
aS'left'
p69
aa(lp70
I0
aF88.06996488571167
aS'right'
p71
aa(lp72
I0
aF89.887284994125366
aS'left'
p73
aa(lp74
I0
aF91.889786958694458
aS'right'
p75
aa(lp76
I0
aF93.941531896591187
aS'left'
p77
aa(lp78
I0
aF96.043265819549561
aS'right'
p79
aa(lp80
I0
aF97.911244869232178
aS'left'
p81
aa(lp82
I0
aF100.16282486915588
aS'left'
p83
aa(lp84
I0
aF100.3129768371582
aS'right'
p85
aa(lp86
I0
aF103.91671895980835
aS'left'
p87
aa(lp88
I0
aF106.28517389297485
aS'left'
p89
aa(lp90
I0
aF107.92024397850037
aS'right'
p91
aa(lp92
I0
aF110.00482392311096
aS'left'
p93
aa(lp94
I0
aF111.90657687187195
aS'right'
p95
aa(lp96
I0
aF113.94123601913452
aS'left'
p97
aa(lp98
I0
aF115.96014881134033
aS'right'
p99
aa(lp100
I0
aF117.91131687164307
aS'left'
p101
aa(lp102
I1
aF1.4459209442138672
aS'left'
p103
aa(lp104
I1
aF6.4339249134063721
aS'right'
p105
aa(lp106
I1
aF8.385761022567749
aS'left'
p107
aa(lp108
I1
aF10.269945859909058
aS'right'
p109
aa(lp110
I1
aF12.30500602722168
aS'left'
p111
aa(lp112
I1
aF14.406884908676147
aS'right'
p113
aa(lp114
I1
aF16.258678913116455
aS'left'
p115
aa(lp116
I1
aF18.327386856079102
aS'right'
p117
aa(lp118
I1
aF20.14512300491333
aS'left'
p119
aa(lp120
I1
aF22.848196029663086
aS'right'
p121
aa(lp122
I1
aF24.298439979553223
aS'left'
p123
aa(lp124
I1
aF26.567870855331421
aS'right'
p125
aa(lp126
I1
aF28.202533960342407
aS'left'
p127
aa(lp128
I1
aF30.203578948974609
aS'right'
p129
aa(lp130
I1
aF32.13857889175415
aS'left'
p131
aa(lp132
I1
aF34.323550939559937
aS'right'
p133
aa(lp134
I1
aF36.176203012466431
aS'left'
p135
aa(lp136
I1
aF38.177188873291016
aS'right'
p137
aa(lp138
I1
aF40.112141847610474
aS'left'
p139
aa(lp140
I1
aF42.431570053100586
aS'right'
p141
aa(lp142
I1
aF44.315212965011597
aS'left'
p143
aa(lp144
I1
aF46.267123937606812
aS'right'
p145
aa(lp146
I1
aF48.152009963989258
aS'left'
p147
aa(lp148
I1
aF50.120930910110474
aS'right'
p149
aa(lp150
I1
aF52.155477046966553
aS'left'
p151
aa(lp152
I1
aF54.173950910568237
aS'right'
p153
aa(lp154
I1
aF56.158961057662964
aS'left'
p155
aa(lp156
I1
aF58.143956899642944
aS'right'
p157
aa(lp158
I1
aF60.129081010818481
aS'left'
p159
aa(lp160
I1
aF62.064671039581299
aS'right'
p161
aa(lp162
I1
aF64.165962934494019
aS'left'
p163
aa(lp164
I1
aF66.117302894592285
aS'right'
p165
aa(lp166
I1
aF67.968806028366089
aS'left'
p167
aa(lp168
I1
aF70.221395969390869
aS'right'
p169
aa(lp170
I1
aF72.240112066268921
aS'left'
p171
aa(lp172
I1
aF74.207622051239014
aS'right'
p173
aa(lp174
I1
aF76.009063959121704
aS'left'
p175
aa(lp176
I1
aF78.111769914627075
aS'right'
p177
aa(lp178
I1
aF80.08005690574646
aS'left'
p179
aa(lp180
I1
aF82.148597002029419
aS'right'
p181
aa(lp182
I1
aF84.065928936004639
aS'left'
p183
aa(lp184
I1
aF85.750759840011597
aS'right'
p185
aa(lp186
I1
aF88.119488000869751
aS'left'
p187
aa(lp188
I1
aF90.154435873031616
aS'right'
p189
aa(lp190
I1
aF92.106204032897949
aS'left'
p191
aa(lp192
I1
aF94.27529501914978
aS'right'
p193
aa(lp194
I1
aF96.093559980392456
aS'left'
p195
aa(lp196
I1
aF98.178025960922241
aS'right'
p197
aa(lp198
I1
aF100.11279106140137
aS'left'
p199
aa(lp200
I1
aF102.11528897285461
aS'right'
p201
aa(lp202
I1
aF104.11680197715759
aS'left'
p203
aa(lp204
I1
aF106.068932056427
aS'right'
p205
aa(lp206
I1
aF108.13699698448181
aS'left'
p207
aa(lp208
I1
aF110.05451703071594
aS'right'
p209
aa(lp210
I1
aF112.02321195602417
aS'left'
p211
aa(lp212
I1
aF113.97465395927429
aS'right'
p213
aa(lp214
I1
aF116.09336304664612
aS'left'
p215
aa(lp216
I1
aF118.07817983627319
aS'right'
p217
aa(lp218
I2
aF2.0290610790252686
aS'left'
p219
aa(lp220
I2
aF4.6317310333251953
aS'right'
p221
aa(lp222
I2
aF8.3672370910644531
aS'left'
p223
aa(lp224
I2
aF12.905002117156982
aS'right'
p225
aa(lp226
I2
aF15.641171216964722
aS'left'
p227
aa(lp228
I2
aF18.342527151107788
aS'right'
p229
aa(lp230
I2
aF23.163206100463867
aS'left'
p231
aa(lp232
I2
aF26.649304151535034
aS'right'
p233
aa(lp234
I2
aF30.170044183731079
aS'left'
p235
aa(lp236
I2
aF32.337733030319214
aS'right'
p237
aa(lp238
I2
aF34.356660127639771
aS'left'
p239
aa(lp240
I2
aF34.573393106460571
aS'left'
p241
aa(lp242
I2
aF36.091377019882202
aS'right'
p243
aa(lp244
I2
aF38.292371034622192
aS'left'
p245
aa(lp246
I2
aF41.212069988250732
aS'right'
p247
aa(lp248
I2
aF43.364276170730591
aS'left'
p249
aa(lp250
I2
aF45.449642181396484
aS'left'
p251
aa(lp252
I2
aF47.383581161499023
aS'right'
p253
aa(lp254
I2
aF50.186746120452881
aS'right'
p255
aa(lp256
I2
aF53.455525159835815
aS'left'
p257
aa(lp258
I2
aF55.374126195907593
aS'right'
p259
aa(lp260
I2
aF57.326336145401001
aS'left'
p261
aa(lp262
I2
aF59.393837213516235
aS'right'
p263
aa(lp264
I2
aF61.196405172348022
aS'left'
p265
aa(lp266
I2
aF62.897679090499878
aS'right'
p267
aa(lp268
I2
aF64.865252017974854
aS'left'
p269
aa(lp270
I2
aF66.283466100692749
aS'right'
p271
aa(lp272
I2
aF68.585063219070435
aS'left'
p273
aa(lp274
I2
aF70.820227146148682
aS'right'
p275
aa(lp276
I2
aF72.97186017036438
aS'left'
p277
aa(lp278
I2
aF75.024643182754517
aS'right'
p279
aa(lp280
I2
aF76.975466012954712
aS'left'
p281
aa(lp282
I2
aF79.261106014251709
aS'right'
p283
aa(lp284
I2
aF81.14571213722229
aS'left'
p285
aa(lp286
I2
aF82.981189012527466
aS'right'
p287
aa(lp288
I2
aF85.183398008346558
aS'left'
p289
aa(lp290
I2
aF87.151507139205933
aS'right'
p291
aa(lp292
I2
aF89.036063194274902
aS'left'
p293
aa(lp294
I2
aF90.937463998794556
aS'right'
p295
aa(lp296
I2
aF93.073009014129639
aS'left'
p297
aa(lp298
I2
aF94.925027132034302
aS'right'
p299
aa(lp300
I2
aF97.076741218566895
aS'left'
p301
aa(lp302
I2
aF99.027602195739746
aS'right'
p303
aa(lp304
I2
aF100.74558401107788
aS'left'
p305
aa(lp306
I2
aF102.74796414375305
aS'right'
p307
aa(lp308
I2
aF104.83244514465332
aS'left'
p309
aa(lp310
I2
aF107.01751518249512
aS'right'
p311
aa(lp312
I2
aF108.88591313362122
aS'left'
p313
aa(lp314
I2
aF110.95487308502197
aS'right'
p315
aa(lp316
I2
aF113.03932309150696
aS'left'
p317
aa(lp318
I2
aF115.04103708267212
aS'right'
p319
aa(lp320
I2
aF116.85978221893311
aS'left'
p321
aa(lp322
I2
aF118.89491200447083
aS'right'
p323
aas.