(dp1
S'responses'
p2
(lp3
(lp4
I-1
aF7.8711559772491455
aS'right'
p5
aa(lp6
I-1
aF13.893319129943848
aS'left'
p7
aa(lp8
I-1
aF21.032371044158936
aS'right'
p9
aa(lp10
I0
aF1.000201940536499
aS'right'
p11
aa(lp12
I0
aF11.92586088180542
aS'left'
p13
aa(lp14
I0
aF16.279107809066772
aS'right'
p15
aa(lp16
I0
aF22.40190577507019
aS'right'
p17
aa(lp18
I0
aF33.828430891036987
aS'left'
p19
aa(lp20
I0
aF44.787470817565918
aS'right'
p21
aa(lp22
I0
aF57.948462963104248
aS'left'
p23
aa(lp24
I0
aF68.690269947052002
aS'right'
p25
aa(lp26
I0
aF78.115273952484131
aS'left'
p27
aa(lp28
I0
aF87.139660835266113
aS'right'
p29
aa(lp30
I0
aF97.94923996925354
aS'left'
p31
aa(lp32
I0
aF110.95946288108826
aS'right'
p33
aas.