(dp1
S'responses'
p2
(lp3
(lp4
I0
aF12.067662954330444
aS'left'
p5
aa(lp6
I1
aF9.7291901111602783
aS'left'
p7
aa(lp8
I1
aF18.469625949859619
aS'right'
p9
aa(lp10
I2
aF2.4507598876953125
aS'right'
p11
aa(lp12
I2
aF51.525434017181396
aS'left'
p13
aas.