(dp1
S'responses'
p2
(lp3
(lp4
I-1
aF4.595689058303833
aS'right'
p5
aa(lp6
I0
aF2.0197789669036865
aS'right'
p7
aa(lp8
I0
aF17.8331298828125
aS'left'
p9
aa(lp10
I0
aF24.071512937545776
aS'right'
p11
aa(lp12
I0
aF30.077522993087769
aS'left'
p13
aa(lp14
I0
aF35.015487909317017
aS'left'
p15
aa(lp16
I0
aF46.273953914642334
aS'right'
p17
aa(lp18
I0
aF61.053910970687866
aS'left'
p19
aa(lp20
I0
aF71.662142992019653
aS'right'
p21
aa(lp22
I0
aF84.10574197769165
aS'left'
p23
aa(lp24
I0
aF88.626353025436401
aS'right'
p25
aa(lp26
I0
aF102.7055389881134
aS'left'
p27
aa(lp28
I0
aF111.4623908996582
aS'right'
p29
aas.