(dp1
S'responses'
p2
(lp3
(lp4
I-1
aF1.3895180225372314
aS'right'
p5
aa(lp6
I-1
aF12.548969984054565
aS'left'
p7
aa(lp8
I0
aF1.1020541191101074
aS'right'
p9
aa(lp10
I0
aF17.131953001022339
aS'left'
p11
aa(lp12
I0
aF34.346702098846436
aS'right'
p13
aa(lp14
I0
aF59.268686056137085
aS'left'
p15
aa(lp16
I0
aF76.349148035049438
aS'right'
p17
aa(lp18
I0
aF99.102553129196167
aS'left'
p19
aa(lp20
I0
aF114.43308401107788
aS'right'
p21
aas.