(dp1
S'responses'
p2
(lp3
(lp4
I0
aF1.8700001239776611
aS'right'
p5
aa(lp6
I0
aF12.544844150543213
aS'left'
p7
aa(lp8
I0
aF46.575000047683716
aS'right'
p9
aa(lp10
I0
aF83.038853168487549
aS'left'
p11
aa(lp12
I0
aF115.11675119400024
aS'right'
p13
aa(lp14
I1
aF2.3709280490875244
aS'right'
p15
aa(lp16
I1
aF24.657016038894653
aS'left'
p17
aa(lp18
I1
aF41.571588039398193
aS'right'
p19
aa(lp20
I1
aF56.668038845062256
aS'left'
p21
aa(lp22
I1
aF83.173562049865723
aS'right'
p23
aa(lp24
I1
aF106.41083002090454
aS'left'
p25
aa(lp26
I2
aF2.724215030670166
aS'left'
p27
aa(lp28
I2
aF16.919772148132324
aS'right'
p29
aa(lp30
I2
aF35.619111061096191
aS'left'
p31
aa(lp32
I2
aF58.85608696937561
aS'right'
p33
aa(lp34
I2
aF80.574669122695923
aS'left'
p35
aa(lp36
I2
aF110.7665650844574
aS'right'
p37
aas.