(dp1
S'responses'
p2
(lp3
(lp4
I-1
aF1.8973808288574219
aS'right'
p5
aa(lp6
I-1
aF6.7518148422241211
aS'right'
p7
aa(lp8
I-1
aF14.241273880004883
aS'left'
p9
aa(lp10
I-1
aF26.117283821105957
aS'right'
p11
aa(lp12
I0
aF0.96218299865722656
aS'right'
p13
aa(lp14
I0
aF8.5525510311126709
aS'left'
p15
aa(lp16
I0
aF10.40385103225708
aS'right'
p17
aa(lp18
I0
aF12.58972692489624
aS'left'
p19
aa(lp20
I0
aF21.080090999603271
aS'right'
p21
aa(lp22
I0
aF24.4998459815979
aS'left'
p23
aa(lp24
I0
aF27.518059968948364
aS'right'
p25
aa(lp26
I0
aF34.17392897605896
aS'left'
p27
aa(lp28
I0
aF45.567635059356689
aS'right'
p29
aa(lp30
I0
aF58.027882099151611
aS'left'
p31
aa(lp32
I0
aF71.639833927154541
aS'right'
p33
aa(lp34
I0
aF79.246202945709229
aS'left'
p35
aa(lp36
I0
aF87.385701894760132
aS'right'
p37
aa(lp38
I0
aF98.895390033721924
aS'left'
p39
aa(lp40
I0
aF111.7901599407196
aS'right'
p41
aas.