(dp1
S'responses'
p2
(lp3
(lp4
I0
aF0.73370599746704102
aS'right'
p5
aa(lp6
I0
aF10.20919394493103
aS'left'
p7
aa(lp8
I0
aF28.491321086883545
aS'right'
p9
aa(lp10
I0
aF39.300550937652588
aS'left'
p11
aa(lp12
I0
aF42.319937944412231
aS'right'
p13
aa(lp14
I0
aF44.705332040786743
aS'left'
p15
aa(lp16
I0
aF59.617119073867798
aS'right'
p17
aa(lp18
I0
aF65.939387083053589
aS'left'
p19
aa(lp20
I0
aF72.929234027862549
aS'right'
p21
aa(lp22
I0
aF83.070114135742188
aS'left'
p23
aa(lp24
I0
aF92.061141014099121
aS'left'
p25
aa(lp26
I0
aF96.215558052062988
aS'right'
p27
aa(lp28
I0
aF102.60313296318054
aS'right'
p29
aa(lp30
I0
aF103.93802309036255
aS'left'
p31
aa(lp32
I0
aF113.0128481388092
aS'right'
p33
aa(lp34
I1
aF1.901623010635376
aS'left'
p35
aa(lp36
I1
aF12.076592922210693
aS'right'
p37
aa(lp38
I1
aF19.782894849777222
aS'left'
p39
aa(lp40
I1
aF29.874409914016724
aS'right'
p41
aa(lp42
I1
aF33.444616794586182
aS'left'
p43
aa(lp44
I1
aF35.563418865203857
aS'right'
p45
aa(lp46
I1
aF40.617620944976807
aS'left'
p47
aa(lp48
I1
aF49.541728973388672
aS'right'
p49
aa(lp50
I1
aF56.397411823272705
aS'left'
p51
aa(lp52
I1
aF62.819038867950439
aS'right'
p53
aa(lp54
I1
aF66.32188892364502
aS'left'
p55
aa(lp56
I1
aF68.941423892974854
aS'right'
p57
aa(lp58
I1
aF77.849270820617676
aS'left'
p59
aa(lp60
I1
aF85.70536994934082
aS'right'
p61
aa(lp62
I1
aF90.609807014465332
aS'left'
p63
aa(lp64
I1
aF96.164325952529907
aS'right'
p65
aa(lp66
I1
aF98.498984813690186
aS'left'
p67
aa(lp68
I1
aF104.75486779212952
aS'right'
p69
aa(lp70
I1
aF108.32470488548279
aS'left'
p71
aa(lp72
I2
aF0.95141005516052246
aS'left'
p73
aa(lp74
I2
aF15.514122009277344
aS'right'
p75
aa(lp76
I2
aF24.804797887802124
aS'left'
p77
aa(lp78
I2
aF32.978981971740723
aS'right'
p79
aa(lp80
I2
aF45.055037975311279
aS'left'
p81
aa(lp82
I2
aF60.901769876480103
aS'right'
p83
aa(lp84
I2
aF67.807765960693359
aS'right'
p85
aa(lp86
I2
aF75.981889009475708
aS'left'
p87
aa(lp88
I2
aF81.536195039749146
aS'right'
p89
aa(lp90
I2
aF84.606246948242188
aS'left'
p91
aa(lp92
I2
aF95.948692083358765
aS'right'
p93
aa(lp94
I2
aF105.92398405075073
aS'left'
p95
aas.