(dp1
S'responses'
p2
(lp3
(lp4
I-1
aF2.6727268695831299
aS'right'
p5
aa(lp6
I-1
aF14.132967948913574
aS'left'
p7
aa(lp8
I-1
aF29.846000909805298
aS'right'
p9
aa(lp10
I0
aF0.97134208679199219
aS'right'
p11
aa(lp12
I0
aF17.117825984954834
aS'left'
p13
aa(lp14
I0
aF23.75812292098999
aS'right'
p15
aa(lp16
I0
aF35.116820096969604
aS'left'
p17
aa(lp18
I0
aF51.331939935684204
aS'right'
p19
aa(lp20
I0
aF60.038793087005615
aS'left'
p21
aa(lp22
I0
aF69.880957126617432
aS'right'
p23
aa(lp24
I0
aF81.007179975509644
aS'left'
p25
aas.