(dp1
S'responses'
p2
(lp3
(lp4
I0
aF1.0888738632202148
aS'right'
p5
aa(lp6
I0
aF5.8769838809967041
aS'left'
p7
aa(lp8
I0
aF13.248867034912109
aS'right'
p9
aa(lp10
I0
aF21.639666080474854
aS'left'
p11
aa(lp12
I0
aF36.6700758934021
aS'left'
p13
aa(lp14
I0
aF41.056622982025146
aS'right'
p15
aa(lp16
I0
aF49.747575044631958
aS'left'
p17
aa(lp18
I0
aF60.673083066940308
aS'left'
p19
aa(lp20
I0
aF73.368037939071655
aS'right'
p21
aa(lp22
I0
aF82.826186895370483
aS'left'
p23
aa(lp24
I0
aF95.820302963256836
aS'right'
p25
aa(lp26
I1
aF1.3015320301055908
aS'left'
p27
aa(lp28
I1
aF20.318667888641357
aS'left'
p29
aa(lp30
I1
aF25.089223861694336
aS'right'
p31
aa(lp32
I1
aF36.065305948257446
aS'right'
p33
aa(lp34
I1
aF37.649252891540527
aS'left'
p35
aa(lp36
I1
aF56.39910888671875
aS'right'
p37
aa(lp38
I1
aF66.240427017211914
aS'left'
p39
aa(lp40
I1
aF91.895863056182861
aS'right'
p41
aa(lp42
I1
aF115.28341603279114
aS'left'
p43
aa(lp44
I2
aF1.5938820838928223
aS'right'
p45
aa(lp46
I2
aF12.736100912094116
aS'right'
p47
aa(lp48
I2
aF25.447798013687134
aS'left'
p49
aa(lp50
I2
aF35.589185953140259
aS'right'
p51
aa(lp52
I2
aF51.886835098266602
aS'left'
p53
aa(lp54
I2
aF56.724493026733398
aS'left'
p55
aa(lp56
I2
aF67.033396005630493
aS'left'
p57
aa(lp58
I2
aF110.43683195114136
aS'left'
p59
aas.