(dp1
S'responses'
p2
(lp3
(lp4
I0
aF1.5889990329742432
aS'left'
p5
aa(lp6
I0
aF99.040264129638672
aS'right'
p7
aa(lp8
I0
aF103.8105480670929
aS'left'
p9
aa(lp10
I1
aF2.2429671287536621
aS'left'
p11
aa(lp12
I1
aF17.239567995071411
aS'right'
p13
aa(lp14
I2
aF3.9151079654693604
aS'right'
p15
aa(lp16
I2
aF20.145286083221436
aS'right'
p17
aa(lp18
I2
aF89.238403081893921
aS'left'
p19
aa(lp20
I2
aF99.231181144714355
aS'right'
p21
aas.