(dp1
S'responses'
p2
(lp3
(lp4
I-1
aF5.0914859771728516
aS'right'
p5
aa(lp6
I-1
aF12.181254863739014
aS'left'
p7
aa(lp8
I-1
aF13.282598972320557
aS'right'
p9
aa(lp10
I-1
aF21.40678596496582
aS'right'
p11
aa(lp12
I-1
aF26.194074869155884
aS'left'
p13
aa(lp14
I0
aF1.9872889518737793
aS'left'
p15
aa(lp16
I0
aF9.2604689598083496
aS'left'
p17
aa(lp18
I0
aF10.995159149169922
aS'right'
p19
aa(lp20
I0
aF21.205235004425049
aS'right'
p21
aa(lp22
I0
aF29.778491973876953
aS'right'
p23
aa(lp24
I0
aF39.52071213722229
aS'left'
p25
aa(lp26
I0
aF47.045030117034912
aS'left'
p27
aa(lp28
I0
aF49.630475044250488
aS'right'
p29
aa(lp30
I0
aF58.505053043365479
aS'left'
p31
aa(lp32
I0
aF67.69597601890564
aS'left'
p33
aa(lp34
I0
aF76.187057971954346
aS'right'
p35
aa(lp36
I0
aF87.280868053436279
aS'left'
p37
aa(lp38
I0
aF92.051789045333862
aS'right'
p39
aa(lp40
I0
aF99.857769012451172
aS'left'
p41
aa(lp42
I0
aF109.03297805786133
aS'left'
p43
aa(lp44
I0
aF113.88814806938171
aS'left'
p45
aas.