(dp1
S'responses'
p2
(lp3
(lp4
I0
aF2.2864561080932617
aS'left'
p5
aa(lp6
I0
aF7.9073781967163086
aS'right'
p7
aa(lp8
I0
aF9.8928921222686768
aS'left'
p9
aa(lp10
I0
aF19.967306137084961
aS'right'
p11
aa(lp12
I0
aF22.136516094207764
aS'left'
p13
aa(lp14
I0
aF26.706674098968506
aS'right'
p15
aa(lp16
I0
aF32.511337995529175
aS'left'
p17
aa(lp18
I0
aF36.965066194534302
aS'left'
p19
aa(lp20
I0
aF38.900078058242798
aS'right'
p21
aa(lp22
I0
aF46.207375049591064
aS'left'
p23
aa(lp24
I0
aF49.576460123062134
aS'right'
p25
aa(lp26
I0
aF52.612605094909668
aS'left'
p27
aa(lp28
I0
aF58.216512203216553
aS'right'
p29
aa(lp30
I0
aF69.960422039031982
aS'left'
p31
aa(lp32
I0
aF80.703320980072021
aS'right'
p33
aa(lp34
I0
aF82.438076972961426
aS'left'
p35
aa(lp36
I0
aF89.076203107833862
aS'right'
p37
aa(lp38
I0
aF90.127156972885132
aS'left'
p39
aa(lp40
I0
aF97.450829982757568
aS'right'
p41
aa(lp42
I0
aF102.15444397926331
aS'left'
p43
aa(lp44
I0
aF112.37967801094055
aS'right'
p45
aa(lp46
I0
aF113.96388006210327
aS'left'
p47
aa(lp48
I0
aF119.18607997894287
aS'right'
p49
aa(lp50
I1
aF1.4933700561523438
aS'left'
p51
aa(lp52
I1
aF3.7950170040130615
aS'right'
p53
aa(lp54
I1
aF5.7801539897918701
aS'left'
p55
aa(lp56
I1
aF10.918320894241333
aS'left'
p57
aa(lp58
I1
aF17.690848827362061
aS'right'
p59
aa(lp60
I1
aF21.127545833587646
aS'left'
p61
aa(lp62
I1
aF38.825345993041992
aS'right'
p63
aa(lp64
I1
aF42.261153936386108
aS'left'
p65
aa(lp66
I1
aF55.322939872741699
aS'right'
p67
aa(lp68
I1
aF62.712156057357788
aS'right'
p69
aa(lp70
I1
aF69.885026931762695
aS'left'
p71
aa(lp72
I1
aF78.926168918609619
aS'right'
p73
aa(lp74
I1
aF90.201943874359131
aS'left'
p75
aa(lp76
I1
aF93.471525907516479
aS'right'
p77
aa(lp78
I2
aF4.2425031661987305
aS'left'
p79
aa(lp80
I2
aF10.597999095916748
aS'right'
p81
aa(lp82
I2
aF16.636880159378052
aS'left'
p83
aa(lp84
I2
aF21.04105806350708
aS'left'
p85
aa(lp86
I2
aF27.979528188705444
aS'right'
p87
aa(lp88
I2
aF33.784651041030884
aS'left'
p89
aa(lp90
I2
aF38.77180814743042
aS'right'
p91
aa(lp92
I2
aF40.056835174560547
aS'left'
p93
aa(lp94
I2
aF44.360563039779663
aS'left'
p95
aa(lp96
I2
aF49.514540195465088
aS'right'
p97
aa(lp98
I2
aF57.721408128738403
aS'left'
p99
aa(lp100
I2
aF64.110984086990356
aS'right'
p101
aa(lp102
I2
aF74.419640064239502
aS'left'
p103
aa(lp104
I2
aF75.953338146209717
aS'right'
p105
aa(lp106
I2
aF78.005934000015259
aS'left'
p107
aa(lp108
I2
aF79.840804100036621
aS'left'
p109
aa(lp110
I2
aF81.258417129516602
aS'right'
p111
aa(lp112
I2
aF82.759625196456909
aS'left'
p113
aa(lp114
I2
aF85.461663007736206
aS'right'
p115
aas.