(dp1
S'responses'
p2
(lp3
(lp4
I-1
aF2.2772488594055176
aS'right'
p5
aa(lp6
I-1
aF8.533038854598999
aS'left'
p7
aa(lp8
I-1
aF18.758174896240234
aS'right'
p9
aa(lp10
I0
aF1.1691100597381592
aS'left'
p11
aa(lp12
I0
aF13.713837146759033
aS'right'
p13
aa(lp14
I0
aF26.241080045700073
aS'left'
p15
aa(lp16
I0
aF30.227841138839722
aS'right'
p17
aa(lp18
I0
aF35.049671173095703
aS'left'
p19
aa(lp20
I0
aF36.300704002380371
aS'right'
p21
aa(lp22
I0
aF40.454498052597046
aS'left'
p23
aa(lp24
I0
aF46.726036071777344
aS'right'
p25
aa(lp26
I0
aF62.056173086166382
aS'right'
p27
aa(lp28
I0
aF64.742034196853638
aS'left'
p29
aa(lp30
I0
aF73.766211986541748
aS'right'
p31
aa(lp32
I0
aF78.954511165618896
aS'left'
p33
aa(lp34
I0
aF91.332581043243408
aS'right'
p35
aas.