(dp1
S'responses'
p2
(lp3
(lp4
I-1
aF4.488706111907959
aS'right'
p5
aa(lp6
I-1
aF7.4572141170501709
aS'left'
p7
aa(lp8
I-1
aF23.521810054779053
aS'right'
p9
aa(lp10
I0
aF1.193648099899292
aS'right'
p11
aa(lp12
I0
aF5.8975260257720947
aS'left'
p13
aa(lp14
I0
aF7.2321710586547852
aS'right'
p15
aa(lp16
I0
aF11.486214160919189
aS'left'
p17
aa(lp18
I0
aF19.675676107406616
aS'right'
p19
aa(lp20
I0
aF34.055230140686035
aS'left'
p21
aa(lp22
I0
aF47.48330020904541
aS'right'
p23
aa(lp24
I0
aF59.559942007064819
aS'left'
p25
aa(lp26
I0
aF69.952445030212402
aS'right'
p27
aa(lp28
I0
aF78.509580135345459
aS'left'
p29
aa(lp30
I0
aF87.800708055496216
aS'right'
p31
aa(lp32
I0
aF89.519160985946655
aS'left'
p33
aa(lp34
I0
aF97.308890104293823
aS'right'
p35
aa(lp36
I0
aF99.443892002105713
aS'left'
p37
aas.