(dp1
S'responses'
p2
(lp3
(lp4
I0
aF0.9015200138092041
aS'right'
p5
aa(lp6
I0
aF1.9022459983825684
aS'left'
p7
aa(lp8
I0
aF4.1043219566345215
aS'right'
p9
aa(lp10
I0
aF7.1735589504241943
aS'left'
p11
aa(lp12
I0
aF11.677590847015381
aS'right'
p13
aa(lp14
I0
aF14.19636082649231
aS'left'
p15
aa(lp16
I0
aF19.016335010528564
aS'right'
p17
aa(lp18
I0
aF20.785502910614014
aS'left'
p19
aa(lp20
I0
aF22.703017950057983
aS'right'
p21
aa(lp22
I0
aF25.822932958602905
aS'left'
p23
aa(lp24
I0
aF27.256865978240967
aS'right'
p25
aa(lp26
I0
aF28.825104951858521
aS'left'
p27
aa(lp28
I0
aF30.242811918258667
aS'right'
p29
aa(lp30
I0
aF34.980523824691772
aS'left'
p31
aa(lp32
I0
aF36.932482957839966
aS'right'
p33
aa(lp34
I0
aF39.550870895385742
aS'left'
p35
aa(lp36
I0
aF40.885499000549316
aS'right'
p37
aa(lp38
I0
aF42.319643020629883
aS'left'
p39
aa(lp40
I0
aF44.371892929077148
aS'right'
p41
aa(lp42
I0
aF45.872412919998169
aS'left'
p43
aa(lp44
I0
aF46.957588911056519
aS'right'
p45
aa(lp46
I0
aF54.880300045013428
aS'left'
p47
aa(lp48
I0
aF59.567847013473511
aS'right'
p49
aa(lp50
I0
aF61.135921955108643
aS'left'
p51
aa(lp52
I0
aF62.203100919723511
aS'right'
p53
aa(lp54
I0
aF63.220599889755249
aS'left'
p55
aa(lp56
I0
aF65.589956045150757
aS'right'
p57
aa(lp58
I0
aF67.324012994766235
aS'left'
p59
aa(lp60
I0
aF68.658507823944092
aS'right'
p61
aa(lp62
I0
aF71.427953958511353
aS'left'
p63
aa(lp64
I0
aF72.561789035797119
aS'right'
p65
aa(lp66
I0
aF73.729912042617798
aS'left'
p67
aa(lp68
I0
aF76.999799013137817
aS'right'
p69
aa(lp70
I0
aF78.14973783493042
aS'left'
p71
aa(lp72
I0
aF82.738049983978271
aS'right'
p73
aa(lp74
I0
aF85.523229837417603
aS'left'
p75
aa(lp76
I0
aF86.608048915863037
aS'right'
p77
aa(lp78
I0
aF87.624604940414429
aS'left'
p79
aa(lp80
I0
aF88.525339841842651
aS'right'
p81
aa(lp82
I0
aF94.36384391784668
aS'left'
p83
aa(lp84
I0
aF100.08564496040344
aS'right'
p85
aa(lp86
I0
aF103.47148394584656
aS'left'
p87
aa(lp88
I0
aF106.02348899841309
aS'right'
p89
aa(lp90
I0
aF109.94351696968079
aS'left'
p91
aa(lp92
I0
aF112.01181888580322
aS'right'
p93
aa(lp94
I0
aF113.58001303672791
aS'left'
p95
aa(lp96
I0
aF115.33184099197388
aS'right'
p97
aa(lp98
I0
aF116.69977593421936
aS'left'
p99
aa(lp100
I0
aF117.88413500785828
aS'right'
p101
aa(lp102
I0
aF118.96862292289734
aS'left'
p103
aa(lp104
I1
aF0.97388195991516113
aS'left'
p105
aa(lp106
I1
aF4.0595970153808594
aS'right'
p107
aa(lp108
I1
aF6.1108181476593018
aS'left'
p109
aa(lp110
I1
aF11.065277099609375
aS'right'
p111
aa(lp112
I1
aF13.633447170257568
aS'left'
p113
aa(lp114
I1
aF15.518635988235474
aS'right'
p115
aa(lp116
I1
aF18.287930011749268
aS'left'
p117
aa(lp118
I1
aF23.592249155044556
aS'right'
p119
aa(lp120
I1
aF29.481234073638916
aS'left'
p121
aa(lp122
I1
aF32.166689157485962
aS'right'
p123
aa(lp124
I1
aF34.034417152404785
aS'left'
p125
aa(lp126
I1
aF36.936987161636353
aS'right'
p127
aa(lp128
I1
aF38.388628005981445
aS'left'
p129
aa(lp130
I1
aF39.706423997879028
aS'right'
p131
aa(lp132
I1
aF42.608302116394043
aS'left'
p133
aa(lp134
I1
aF43.859225034713745
aS'right'
p135
aa(lp136
I1
aF45.477734088897705
aS'left'
p137
aa(lp138
I1
aF46.528373956680298
aS'right'
p139
aa(lp140
I1
aF49.080290079116821
aS'left'
p141
aa(lp142
I1
aF51.532886981964111
aS'right'
p143
aa(lp144
I1
aF53.651167154312134
aS'left'
p145
aa(lp146
I1
aF55.253235101699829
aS'right'
p147
aa(lp148
I1
aF56.753623962402344
aS'left'
p149
aa(lp150
I1
aF57.904834032058716
aS'right'
p151
aa(lp152
I1
aF60.090167045593262
aS'left'
p153
aa(lp154
I1
aF61.191673994064331
aS'right'
p155
aa(lp156
I1
aF62.257966041564941
aS'left'
p157
aa(lp158
I1
aF64.042879104614258
aS'right'
p159
aa(lp160
I1
aF65.378221035003662
aS'left'
p161
aa(lp162
I1
aF67.162203073501587
aS'right'
p163
aa(lp164
I1
aF70.198240995407104
aS'left'
p165
aa(lp166
I1
aF73.817913055419922
aS'right'
p167
aa(lp168
I1
aF78.355188131332397
aS'left'
p169
aa(lp170
I1
aF82.976585149765015
aS'right'
p171
aa(lp172
I1
aF86.078434944152832
aS'left'
p173
aa(lp174
I1
aF87.680374145507812
aS'right'
p175
aa(lp176
I1
aF89.464599132537842
aS'left'
p177
aa(lp178
I1
aF90.665554046630859
aS'right'
p179
aa(lp180
I1
aF92.25106406211853
aS'left'
p181
aa(lp182
I1
aF93.384480953216553
aS'right'
p183
aa(lp184
I1
aF94.385945081710815
aS'left'
p185
aa(lp186
I1
aF95.336925029754639
aS'right'
p187
aa(lp188
I1
aF97.388132095336914
aS'left'
p189
aa(lp190
I1
aF98.488633155822754
aS'right'
p191
aa(lp192
I1
aF100.39148616790771
aS'left'
p193
aa(lp194
I1
aF103.29296016693115
aS'right'
p195
aa(lp196
I1
aF104.92862510681152
aS'left'
p197
aa(lp198
I1
aF106.52950096130371
aS'right'
p199
aa(lp200
I1
aF108.89767813682556
aS'left'
p201
aa(lp202
I1
aF110.01636099815369
aS'right'
p203
aa(lp204
I1
aF111.20039796829224
aS'left'
p205
aa(lp206
I1
aF112.7009551525116
aS'right'
p207
aa(lp208
I1
aF113.98555111885071
aS'left'
p209
aa(lp210
I1
aF115.75374913215637
aS'right'
p211
aa(lp212
I1
aF117.20503997802734
aS'left'
p213
aa(lp214
I1
aF118.92340707778931
aS'right'
p215
aa(lp216
I2
aF0.7346949577331543
aS'right'
p217
aa(lp218
I2
aF2.9367640018463135
aS'left'
p219
aa(lp220
I2
aF7.0736849308013916
aS'right'
p221
aa(lp222
I2
aF8.874269962310791
aS'left'
p223
aa(lp224
I2
aF12.494894027709961
aS'right'
p225
aa(lp226
I2
aF15.646842956542969
aS'left'
p227
aa(lp228
I2
aF19.901516914367676
aS'right'
p229
aa(lp230
I2
aF22.853328943252563
aS'left'
p231
aa(lp232
I2
aF25.855494976043701
aS'right'
p233
aa(lp234
I2
aF31.377105951309204
aS'left'
p235
aa(lp236
I2
aF38.13251805305481
aS'right'
p237
aa(lp238
I2
aF41.268471956253052
aS'left'
p239
aa(lp240
I2
aF44.805092096328735
aS'right'
p241
aa(lp242
I2
aF47.858192920684814
aS'left'
p243
aa(lp244
I2
aF49.042182922363281
aS'right'
p245
aa(lp246
I2
aF50.343633890151978
aS'left'
p247
aa(lp248
I2
aF51.393999099731445
aS'right'
p249
aa(lp250
I2
aF53.078655004501343
aS'left'
p251
aa(lp252
I2
aF55.631633996963501
aS'right'
p253
aa(lp254
I2
aF57.066094875335693
aS'left'
p255
aa(lp256
I2
aF59.23407506942749
aS'right'
p257
aa(lp258
I2
aF60.368067979812622
aS'left'
p259
aa(lp260
I2
aF61.336123943328857
aS'right'
p261
aa(lp262
I2
aF62.853363990783691
aS'left'
p263
aa(lp264
I2
aF64.78853702545166
aS'right'
p265
aa(lp266
I2
aF66.07265305519104
aS'left'
p267
aa(lp268
I2
aF68.00783896446228
aS'right'
p269
aa(lp270
I2
aF69.142240047454834
aS'left'
p271
aa(lp272
I2
aF70.077146053314209
aS'right'
p273
aa(lp274
I2
aF71.711359024047852
aS'left'
p275
aa(lp276
I2
aF72.662316083908081
aS'right'
p277
aa(lp278
I2
aF75.932092905044556
aS'left'
p279
aa(lp280
I2
aF78.66723895072937
aS'right'
p281
aa(lp282
I2
aF80.035021066665649
aS'left'
p283
aa(lp284
I2
aF81.236234903335571
aS'right'
p285
aa(lp286
I2
aF82.536885976791382
aS'left'
p287
aa(lp288
I2
aF84.639517068862915
aS'right'
p289
aa(lp290
I2
aF85.722923040390015
aS'left'
p291
aa(lp292
I2
aF87.607649087905884
aS'right'
p293
aa(lp294
I2
aF91.428574085235596
aS'left'
p295
aa(lp296
I2
aF94.79717493057251
aS'right'
p297
aa(lp298
I2
aF95.914741039276123
aS'left'
p299
aa(lp300
I2
aF97.949747085571289
aS'right'
p301
aa(lp302
I2
aF99.017675876617432
aS'left'
p303
aa(lp304
I2
aF99.885138034820557
aS'right'
p305
aa(lp306
I2
aF101.25337886810303
aS'left'
p307
aa(lp308
I2
aF103.7045259475708
aS'right'
p309
aa(lp310
I2
aF105.67356300354004
aS'left'
p311
aa(lp312
I2
aF106.80778503417969
aS'right'
p313
aa(lp314
I2
aF107.82520008087158
aS'left'
p315
aa(lp316
I2
aF108.74212408065796
aS'right'
p317
aa(lp318
I2
aF110.44383001327515
aS'left'
p319
aa(lp320
I2
aF113.47985601425171
aS'right'
p321
aa(lp322
I2
aF116.78252506256104
aS'left'
p323
aa(lp324
I2
aF117.78345608711243
aS'right'
p325
aa(lp326
I2
aF118.76786398887634
aS'left'
p327
aa(lp328
I2
aF119.83591198921204
aS'right'
p329
aas.