(dp1
S'responses'
p2
(lp3
(lp4
I-1
aF1.087151050567627
aS'right'
p5
aa(lp6
I-1
aF4.5726249217987061
aS'left'
p7
aa(lp8
I-1
aF6.1077289581298828
aS'right'
p9
aa(lp10
I-1
aF7.4248549938201904
aS'left'
p11
aa(lp12
I-1
aF8.4423909187316895
aS'right'
p13
aa(lp14
I-1
aF9.1108009815216064
aS'left'
p15
aa(lp16
I-1
aF20.970839023590088
aS'right'
p17
aa(lp18
I0
aF1.3375029563903809
aS'right'
p19
aa(lp20
I0
aF12.463466882705688
aS'left'
p21
aa(lp22
I0
aF21.221524953842163
aS'right'
p23
aa(lp24
I0
aF34.215390920639038
aS'left'
p25
aa(lp26
I0
aF45.14241099357605
aS'right'
p27
aa(lp28
I0
aF58.320791959762573
aS'left'
p29
aa(lp30
I0
aF69.312633037567139
aS'right'
p31
aa(lp32
I0
aF78.787932872772217
aS'left'
p33
aa(lp34
I0
aF87.195080041885376
aS'right'
p35
aa(lp36
I0
aF98.004345893859863
aS'left'
p37
aa(lp38
I0
aF113.5514760017395
aS'right'
p39
aas.