(dp1
S'responses'
p2
(lp3
(lp4
I0
aF4.6328918933868408
aS'left'
p5
aa(lp6
I0
aF6.0509388446807861
aS'right'
p7
aa(lp8
I0
aF8.1862599849700928
aS'left'
p9
aa(lp10
I0
aF8.9540388584136963
aS'right'
p11
aa(lp12
I0
aF9.8208620548248291
aS'left'
p13
aa(lp14
I0
aF11.372174978256226
aS'right'
p15
aa(lp16
I0
aF12.23971700668335
aS'left'
p17
aa(lp18
I0
aF17.111202001571655
aS'right'
p19
aa(lp20
I0
aF18.61191987991333
aS'left'
p21
aa(lp22
I0
aF24.583884954452515
aS'right'
p23
aa(lp24
I0
aF26.43631386756897
aS'left'
p25
aa(lp26
I0
aF32.507370948791504
aS'right'
p27
aa(lp28
I0
aF35.243255853652954
aS'left'
p29
aa(lp30
I0
aF41.748893976211548
aS'right'
p31
aa(lp32
I0
aF42.516548871994019
aS'left'
p33
aa(lp34
I0
aF46.21975302696228
aS'right'
p35
aa(lp36
I0
aF48.471121072769165
aS'left'
p37
aa(lp38
I0
aF49.155160903930664
aS'right'
p39
aa(lp40
I0
aF61.866637945175171
aS'left'
p41
aa(lp42
I0
aF73.359569072723389
aS'right'
p43
aa(lp44
I0
aF86.554383993148804
aS'left'
p45
aa(lp46
I0
aF99.449383974075317
aS'right'
p47
aa(lp48
I0
aF118.06594300270081
aS'left'
p49
aa(lp50
I1
aF1.6483359336853027
aS'left'
p51
aa(lp52
I1
aF15.810484886169434
aS'right'
p53
aa(lp54
I1
aF27.25429892539978
aS'left'
p55
aa(lp56
I1
aF36.077874898910522
aS'right'
p57
aa(lp58
I1
aF45.802951097488403
aS'left'
p59
aa(lp60
I1
aF53.577189922332764
aS'right'
p61
aa(lp62
I1
aF63.035687923431396
aS'left'
p63
aa(lp64
I1
aF69.874141931533813
aS'right'
p65
aa(lp66
I1
aF75.662420988082886
aS'left'
p67
aa(lp68
I1
aF88.106502056121826
aS'right'
p69
aa(lp70
I1
aF102.73662805557251
aS'left'
p71
aa(lp72
I1
aF114.38050389289856
aS'right'
p73
aa(lp74
I2
aF1.5011651515960693
aS'right'
p75
aa(lp76
I2
aF5.7714049816131592
aS'left'
p77
aa(lp78
I2
aF20.234277009963989
aS'right'
p79
aa(lp80
I2
aF45.306112051010132
aS'left'
p81
aa(lp82
I2
aF66.073869943618774
aS'right'
p83
aa(lp84
I2
aF84.190879106521606
aS'left'
p85
aa(lp86
I2
aF96.050647974014282
aS'right'
p87
aa(lp88
I2
aF109.47864294052124
aS'left'
p89
aas.