(dp1
S'responses'
p2
(lp3
(lp4
I0
aF2.219149112701416
aS'left'
p5
aa(lp6
I0
aF4.7544119358062744
aS'right'
p7
aa(lp8
I0
aF7.2743270397186279
aS'left'
p9
aa(lp10
I0
aF10.676403999328613
aS'left'
p11
aa(lp12
I0
aF11.077445030212402
aS'right'
p13
aa(lp14
I0
aF13.979314088821411
aS'left'
p15
aa(lp16
I0
aF18.333163022994995
aS'right'
p17
aa(lp18
I0
aF21.55274510383606
aS'left'
p19
aa(lp20
I0
aF24.938530921936035
aS'right'
p21
aa(lp22
I0
aF28.091414928436279
aS'left'
p23
aa(lp24
I0
aF33.046134948730469
aS'right'
p25
aa(lp26
I0
aF41.519227027893066
aS'left'
p27
aa(lp28
I0
aF42.420805931091309
aS'left'
p29
aa(lp30
I0
aF47.625039100646973
aS'right'
p31
aa(lp32
I0
aF56.032027959823608
aS'left'
p33
aa(lp34
I0
aF59.051363945007324
aS'left'
p35
aa(lp36
I0
aF62.020431041717529
aS'right'
p37
aa(lp38
I0
aF65.706346035003662
aS'left'
p39
aa(lp40
I0
aF70.060030937194824
aS'right'
p41
aa(lp42
I0
aF72.145776987075806
aS'right'
p43
aa(lp44
I0
aF73.879957914352417
aS'left'
p45
aa(lp46
I0
aF80.586067914962769
aS'right'
p47
aa(lp48
I0
aF85.13927698135376
aS'right'
p49
aa(lp50
I0
aF91.011101961135864
aS'left'
p51
aa(lp52
I0
aF97.967339038848877
aS'right'
p53
aa(lp54
I0
aF110.02784609794617
aS'right'
p55
aa(lp56
I0
aF112.27928900718689
aS'left'
p57
aa(lp58
I0
aF119.9525249004364
aS'right'
p59
aa(lp60
I1
aF1.1438090801239014
aS'right'
p61
aa(lp62
I1
aF8.4174990653991699
aS'left'
p63
aa(lp64
I1
aF11.069000005722046
aS'left'
p65
aa(lp66
I1
aF13.338117122650146
aS'right'
p67
aa(lp68
I1
aF19.543001174926758
aS'left'
p69
aa(lp70
I1
aF22.845800161361694
aS'right'
p71
aa(lp72
I1
aF27.099644184112549
aS'left'
p73
aa(lp74
I1
aF31.486623048782349
aS'right'
p75
aa(lp76
I1
aF36.907992124557495
aS'left'
p77
aa(lp78
I1
aF42.528985023498535
aS'right'
p79
aa(lp80
I1
aF48.217755079269409
aS'left'
p81
aa(lp82
I1
aF52.538166999816895
aS'right'
p83
aa(lp84
I1
aF55.507285118103027
aS'right'
p85
aa(lp86
I1
aF58.676596164703369
aS'left'
p87
aa(lp88
I1
aF60.277918100357056
aS'right'
p89
aa(lp90
I1
aF65.264765024185181
aS'left'
p91
aa(lp92
I1
aF71.853713035583496
aS'right'
p93
aa(lp94
I1
aF78.058886051177979
aS'left'
p95
aa(lp96
I1
aF83.696994066238403
aS'right'
p97
aa(lp98
I1
aF91.553636074066162
aS'left'
p99
aa(lp100
I1
aF97.10816502571106
aS'right'
p101
aa(lp102
I1
aF103.04746603965759
aS'left'
p103
aa(lp104
I1
aF109.93673610687256
aS'right'
p105
aa(lp106
I1
aF112.9550461769104
aS'left'
p107
aa(lp108
I1
aF116.07505416870117
aS'right'
p109
aa(lp110
I2
aF1.0741209983825684
aS'right'
p111
aa(lp112
I2
aF4.9931390285491943
aS'left'
p113
aa(lp114
I2
aF6.44563889503479
aS'right'
p115
aa(lp116
I2
aF9.1643078327178955
aS'right'
p117
aa(lp118
I2
aF12.649983882904053
aS'left'
p119
aa(lp120
I2
aF16.78697395324707
aS'right'
p121
aa(lp122
I2
aF20.457422971725464
aS'left'
p123
aa(lp124
I2
aF25.277940988540649
aS'right'
p125
aa(lp126
I2
aF30.632766008377075
aS'left'
p127
aa(lp128
I2
aF34.318289041519165
aS'right'
p129
aa(lp130
I2
aF41.524415016174316
aS'left'
p131
aa(lp132
I2
aF46.846214056015015
aS'right'
p133
aa(lp134
I2
aF47.763255834579468
aS'left'
p135
aa(lp136
I2
aF50.516209840774536
aS'right'
p137
aa(lp138
I2
aF58.956332921981812
aS'left'
p139
aa(lp140
I2
aF61.308233976364136
aS'right'
p141
aa(lp142
I2
aF64.226838827133179
aS'right'
p143
aa(lp144
I2
aF71.100097894668579
aS'left'
p145
aa(lp146
I2
aF74.785814046859741
aS'left'
p147
aa(lp148
I2
aF77.354703903198242
aS'right'
p149
aa(lp150
I2
aF80.024293899536133
aS'left'
p151
aa(lp152
I2
aF83.12638783454895
aS'right'
p153
aa(lp154
I2
aF89.165043830871582
aS'right'
p155
aa(lp156
I2
aF94.152518033981323
aS'left'
p157
aa(lp158
I2
aF98.489380836486816
aS'right'
p159
aa(lp160
I2
aF104.76129198074341
aS'left'
p161
aa(lp162
I2
aF108.14811587333679
aS'right'
p163
aa(lp164
I2
aF114.73648405075073
aS'left'
p165
aas.