(dp1
S'responses'
p2
(lp3
(lp4
I-1
aF2.9169721603393555
aS'left'
p5
aa(lp6
I-1
aF5.0015640258789062
aS'right'
p7
aa(lp8
I-1
aF11.55692195892334
aS'right'
p9
aa(lp10
I-1
aF12.340999126434326
aS'right'
p11
aa(lp12
I-1
aF14.67706298828125
aS'left'
p13
aa(lp14
I-1
aF22.433207988739014
aS'right'
p15
aa(lp16
I-1
aF26.453277111053467
aS'right'
p17
aa(lp18
I0
aF4.7858138084411621
aS'right'
p19
aa(lp20
I0
aF10.439759969711304
aS'left'
p21
aa(lp22
I0
aF12.040905952453613
aS'right'
p23
aa(lp24
I0
aF19.046773910522461
aS'right'
p25
aa(lp26
I0
aF25.45295786857605
aS'right'
p27
aa(lp28
I0
aF27.353830814361572
aS'left'
p29
aa(lp30
I0
aF34.577104806900024
aS'left'
p31
aa(lp32
I0
aF42.400604963302612
aS'left'
p33
aa(lp34
I0
aF49.440097808837891
aS'right'
p35
aa(lp36
I0
aF52.142082929611206
aS'left'
p37
aa(lp38
I0
aF62.466629028320312
aS'right'
p39
aa(lp40
I0
aF63.434396982192993
aS'left'
p41
aa(lp42
I0
aF69.840384960174561
aS'left'
p43
aa(lp44
I0
aF71.307926893234253
aS'right'
p45
aa(lp46
I0
aF83.451357841491699
aS'left'
p47
aa(lp48
I0
aF94.627575874328613
aS'right'
p49
aa(lp50
I0
aF104.55314493179321
aS'right'
p51
aa(lp52
I0
aF112.00918889045715
aS'right'
p53
aas.