(dp1
S'responses'
p2
(lp3
(lp4
I0
aF2.4356529712677002
aS'right'
p5
aa(lp6
I0
aF5.8560950756072998
aS'left'
p7
aa(lp8
I0
aF10.242694854736328
aS'right'
p9
aa(lp10
I0
aF12.662214040756226
aS'left'
p11
aa(lp12
I0
aF16.682869911193848
aS'left'
p13
aa(lp14
I0
aF25.890186071395874
aS'left'
p15
aa(lp16
I0
aF34.465167045593262
aS'left'
p17
aa(lp18
I0
aF43.839289903640747
aS'left'
p19
aa(lp20
I0
aF50.195124864578247
aS'right'
p21
aa(lp22
I0
aF59.720144987106323
aS'right'
p23
aa(lp24
I0
aF73.232528924942017
aS'right'
p25
aa(lp26
I0
aF87.412575960159302
aS'left'
p27
aa(lp28
I0
aF106.79653406143188
aS'right'
p29
aa(lp30
I0
aF117.47220587730408
aS'right'
p31
aa(lp32
I1
aF3.1972830295562744
aS'right'
p33
aa(lp34
I1
aF11.288374185562134
aS'left'
p35
aa(lp36
I1
aF17.877691030502319
aS'right'
p37
aa(lp38
I1
aF26.785746097564697
aS'right'
p39
aa(lp40
I1
aF32.18987512588501
aS'left'
p41
aa(lp42
I1
aF37.594683170318604
aS'right'
p43
aa(lp44
I1
aF46.653148174285889
aS'left'
p45
aa(lp46
I1
aF52.108187198638916
aS'right'
p47
aa(lp48
I1
aF57.095878124237061
aS'left'
p49
aa(lp50
I1
aF63.435445070266724
aS'right'
p51
aa(lp52
I1
aF67.388473033905029
aS'left'
p53
aa(lp54
I1
aF72.342332124710083
aS'right'
p55
aa(lp56
I1
aF79.015542984008789
aS'left'
p57
aa(lp58
I1
aF85.003851175308228
aS'right'
p59
aa(lp60
I1
aF90.842298030853271
aS'right'
p61
aa(lp62
I1
aF96.698441982269287
aS'right'
p63
aa(lp64
I1
aF98.065510034561157
aS'left'
p65
aa(lp66
I1
aF104.28892517089844
aS'right'
p67
aa(lp68
I1
aF108.2413501739502
aS'left'
p69
aa(lp70
I1
aF113.44657206535339
aS'right'
p71
aa(lp72
I1
aF117.53339815139771
aS'left'
p73
aa(lp74
I2
aF3.8377161026000977
aS'right'
p75
aa(lp76
I2
aF9.4924271106719971
aS'left'
p77
aa(lp78
I2
aF23.38782811164856
aS'right'
p79
aa(lp80
I2
aF32.562746047973633
aS'left'
p81
aa(lp82
I2
aF55.08279013633728
aS'right'
p83
aa(lp84
I2
aF68.34486198425293
aS'left'
p85
aa(lp86
I2
aF114.73611903190613
aS'left'
p87
aas.