(dp1
S'responses'
p2
(lp3
(lp4
I0
aF1.5355491638183594
aS'right'
p5
aa(lp6
I0
aF7.5074141025543213
aS'left'
p7
aa(lp8
I0
aF9.3085370063781738
aS'right'
p9
aa(lp10
I0
aF19.200255155563354
aS'left'
p11
aa(lp12
I0
aF30.07743501663208
aS'left'
p13
aa(lp14
I0
aF32.662598133087158
aS'right'
p15
aa(lp16
I0
aF42.855135202407837
aS'left'
p17
aa(lp18
I0
aF52.581220149993896
aS'right'
p19
aa(lp20
I0
aF63.040606021881104
aS'left'
p21
aa(lp22
I0
aF70.747728109359741
aS'right'
p23
aa(lp24
I0
aF75.685257196426392
aS'left'
p25
aa(lp26
I0
aF84.792689085006714
aS'right'
p27
aa(lp28
I0
aF102.20822715759277
aS'left'
p29
aa(lp30
I0
aF115.88784718513489
aS'right'
p31
aa(lp32
I1
aF2.2876870632171631
aS'right'
p33
aa(lp34
I1
aF10.227683067321777
aS'left'
p35
aa(lp36
I1
aF18.51816201210022
aS'right'
p37
aa(lp38
I1
aF30.128870010375977
aS'left'
p39
aa(lp40
I1
aF36.685395002365112
aS'right'
p41
aa(lp42
I1
aF48.862745046615601
aS'left'
p43
aa(lp44
I1
aF58.520626068115234
aS'right'
p45
aa(lp46
I1
aF72.249482870101929
aS'left'
p47
aa(lp48
I1
aF82.191905975341797
aS'right'
p49
aa(lp50
I1
aF85.778316974639893
aS'left'
p51
aa(lp52
I1
aF89.482455015182495
aS'right'
p53
aa(lp54
I1
aF100.89172291755676
aS'left'
p55
aa(lp56
I1
aF117.05713605880737
aS'right'
p57
aa(lp58
I2
aF1.6097328662872314
aS'right'
p59
aa(lp60
I2
aF8.6835198402404785
aS'left'
p61
aa(lp62
I2
aF13.704219818115234
aS'right'
p63
aa(lp64
I2
aF21.577984809875488
aS'left'
p65
aa(lp66
I2
aF30.302404880523682
aS'right'
p67
aa(lp68
I2
aF40.428484916687012
aS'left'
p69
aa(lp70
I2
aF46.950806856155396
aS'right'
p71
aa(lp72
I2
aF55.308357000350952
aS'left'
p73
aa(lp74
I2
aF63.448816776275635
aS'right'
p75
aa(lp76
I2
aF79.780056953430176
aS'left'
p77
aa(lp78
I2
aF92.542379856109619
aS'left'
p79
aa(lp80
I2
aF101.9171769618988
aS'right'
p81
aa(lp82
I2
aF114.97842693328857
aS'left'
p83
aas.