(dp1
S'responses'
p2
(lp3
(lp4
I0
aF1.1245579719543457
aS'right'
p5
aa(lp6
I0
aF12.151429891586304
aS'right'
p7
aa(lp8
I0
aF14.504276990890503
aS'left'
p9
aa(lp10
I0
aF21.059664964675903
aS'right'
p11
aa(lp12
I0
aF29.566484928131104
aS'right'
p13
aa(lp14
I0
aF37.890722036361694
aS'right'
p15
aa(lp16
I0
aF40.843573093414307
aS'left'
p17
aa(lp18
I0
aF47.033164978027344
aS'right'
p19
aa(lp20
I0
aF51.135818958282471
aS'left'
p21
aa(lp22
I0
aF63.663496017456055
aS'right'
p23
aa(lp24
I0
aF67.667846918106079
aS'left'
p25
aa(lp26
I0
aF72.755835056304932
aS'right'
p27
aa(lp28
I0
aF79.912086009979248
aS'right'
p29
aa(lp30
I0
aF84.449537992477417
aS'left'
p31
aa(lp32
I0
aF88.569031000137329
aS'right'
p33
aa(lp34
I0
aF94.007538080215454
aS'right'
p35
aa(lp36
I0
aF103.74996209144592
aS'right'
p37
aa(lp38
I0
aF106.90277791023254
aS'left'
p39
aa(lp40
I0
aF110.88887691497803
aS'right'
p41
aa(lp42
I0
aF114.47634506225586
aS'right'
p43
aa(lp44
I1
aF1.2071070671081543
aS'right'
p45
aa(lp46
I1
aF6.1107330322265625
aS'left'
p47
aa(lp48
I1
aF10.664803981781006
aS'right'
p49
aa(lp50
I1
aF19.272826910018921
aS'right'
p51
aa(lp52
I1
aF21.841737985610962
aS'left'
p53
aa(lp54
I1
aF27.763928890228271
aS'right'
p55
aa(lp56
I1
aF32.333890914916992
aS'left'
p57
aa(lp58
I1
aF35.6369788646698
aS'right'
p59
aa(lp60
I1
aF49.899842977523804
aS'right'
p61
aa(lp62
I1
aF52.685570001602173
aS'left'
p63
aa(lp64
I1
aF58.207282066345215
aS'left'
p65
aa(lp66
I1
aF63.361582040786743
aS'right'
p67
aa(lp68
I1
aF70.451062917709351
aS'left'
p69
aa(lp70
I1
aF76.323438882827759
aS'right'
p71
aa(lp72
I1
aF79.326572895050049
aS'left'
p73
aa(lp74
I1
aF84.697578907012939
aS'left'
p75
aa(lp76
I1
aF91.153095006942749
aS'left'
p77
aa(lp78
I1
aF100.74508786201477
aS'left'
p79
aa(lp80
I1
aF107.43419885635376
aS'left'
p81
aa(lp82
I1
aF112.72205591201782
aS'right'
p83
aa(lp84
I1
aF118.41144895553589
aS'left'
p85
aa(lp86
I2
aF7.7482230663299561
aS'left'
p87
aa(lp88
I2
aF13.787163972854614
aS'right'
p89
aa(lp90
I2
aF17.173305034637451
aS'left'
p91
aa(lp92
I2
aF25.530272960662842
aS'right'
p93
aa(lp94
I2
aF33.20396900177002
aS'left'
p95
aa(lp96
I2
aF42.996602058410645
aS'left'
p97
aa(lp98
I2
aF53.688591003417969
aS'right'
p99
aa(lp100
I2
aF56.023980140686035
aS'left'
p101
aa(lp102
I2
aF60.17826509475708
aS'right'
p103
aa(lp104
I2
aF65.583298921585083
aS'right'
p105
aa(lp106
I2
aF68.05171012878418
aS'left'
p107
aa(lp108
I2
aF79.478457927703857
aS'right'
p109
aa(lp110
I2
aF84.833204984664917
aS'left'
p111
aa(lp112
I2
aF90.738218069076538
aS'right'
p113
aa(lp114
I2
aF96.110087156295776
aS'right'
p115
aa(lp116
I2
aF102.71614909172058
aS'left'
p117
aa(lp118
I2
aF104.65036106109619
aS'right'
p119
aa(lp120
I2
aF107.28658604621887
aS'left'
p121
aa(lp122
I2
aF110.88989615440369
aS'left'
p123
aa(lp124
I2
aF113.62486696243286
aS'right'
p125
aa(lp126
I2
aF118.62983703613281
aS'right'
p127
aas.