(dp1
S'responses'
p2
(lp3
(lp4
I-1
aF5.2144639492034912
aS'left'
p5
aa(lp6
I-1
aF6.0819439888000488
aS'right'
p7
aa(lp8
I-1
aF9.0357019901275635
aS'right'
p9
aa(lp10
I-1
aF9.8695290088653564
aS'left'
p11
aa(lp12
I-1
aF11.503505945205688
aS'left'
p13
aa(lp14
I-1
aF17.425909042358398
aS'right'
p15
aa(lp16
I-1
aF21.795884132385254
aS'left'
p17
aa(lp18
I-1
aF22.980139970779419
aS'right'
p19
aa(lp20
I-1
aF24.047322988510132
aS'left'
p21
aa(lp22
I-1
aF25.131867170333862
aS'right'
p23
aa(lp24
I-1
aF26.533321142196655
aS'right'
p25
aa(lp26
I0
aF0.76017189025878906
aS'right'
p27
aa(lp28
I0
aF4.0134549140930176
aS'left'
p29
aa(lp30
I0
aF8.5665709972381592
aS'right'
p31
aa(lp32
I0
aF12.353461980819702
aS'right'
p33
aa(lp34
I0
aF13.104256868362427
aS'left'
p35
aa(lp36
I0
aF17.842189073562622
aS'right'
p37
aa(lp38
I0
aF27.065521001815796
aS'left'
p39
aa(lp40
I0
aF32.703849077224731
aS'right'
p41
aa(lp42
I0
aF40.327779054641724
aS'left'
p43
aa(lp44
I0
aF45.097982883453369
aS'right'
p45
aa(lp46
I0
aF46.583473920822144
aS'left'
p47
aa(lp48
I0
aF50.219084978103638
aS'left'
p49
aa(lp50
I0
aF54.872566938400269
aS'right'
p51
aa(lp52
I0
aF63.012793064117432
aS'left'
p53
aa(lp54
I0
aF70.770447969436646
aS'left'
p55
aa(lp56
I0
aF72.204153060913086
aS'right'
p57
aa(lp58
I0
aF73.105001926422119
aS'left'
p59
aa(lp60
I0
aF75.206590890884399
aS'right'
p61
aa(lp62
I0
aF77.908616065979004
aS'left'
p63
aa(lp64
I0
aF80.427892923355103
aS'left'
p65
aa(lp66
I0
aF84.732290029525757
aS'right'
p67
aa(lp68
I0
aF90.620007991790771
aS'left'
p69
aa(lp70
I0
aF94.973264932632446
aS'right'
p71
aa(lp72
I0
aF98.22593092918396
aS'left'
p73
aa(lp74
I0
aF103.99829196929932
aS'right'
p75
aa(lp76
I0
aF110.97067284584045
aS'left'
p77
aa(lp78
I0
aF116.10793590545654
aS'right'
p79
aas.