(dp1
S'responses'
p2
(lp3
(lp4
I0
aF4.4205009937286377
aS'right'
p5
aa(lp6
I0
aF4.8878729343414307
aS'right'
p7
aa(lp8
I0
aF9.3240578174591064
aS'right'
p9
aa(lp10
I0
aF9.5574460029602051
aS'left'
p11
aa(lp12
I0
aF16.130013942718506
aS'right'
p13
aa(lp14
I0
aF19.049513816833496
aS'left'
p15
aa(lp16
I0
aF22.552372932434082
aS'right'
p17
aa(lp18
I0
aF24.437153816223145
aS'right'
p19
aa(lp20
I0
aF27.28957986831665
aS'left'
p21
aa(lp22
I0
aF37.347937822341919
aS'right'
p23
aa(lp24
I0
aF39.299892902374268
aS'left'
p25
aa(lp26
I0
aF43.403021812438965
aS'right'
p27
aa(lp28
I0
aF50.075496912002563
aS'left'
p29
aa(lp30
I0
aF53.128808975219727
aS'right'
p31
aa(lp32
I0
aF64.471473932266235
aS'left'
p33
aa(lp34
I0
aF79.033393859863281
aS'right'
p35
aa(lp36
I0
aF85.738893032073975
aS'right'
p37
aa(lp38
I0
aF97.06541895866394
aS'right'
p39
aa(lp40
I0
aF111.77756381034851
aS'right'
p41
aa(lp42
I0
aF118.73425889015198
aS'right'
p43
aa(lp44
I1
aF15.657869100570679
aS'right'
p45
aa(lp46
I1
aF28.551941156387329
aS'right'
p47
aa(lp48
I1
aF32.321732044219971
aS'right'
p49
aa(lp50
I1
aF35.041162014007568
aS'left'
p51
aa(lp52
I1
aF51.788822174072266
aS'right'
p53
aa(lp54
I1
aF56.509212017059326
aS'right'
p55
aa(lp56
I1
aF63.297818183898926
aS'right'
p57
aa(lp58
I1
aF64.081525087356567
aS'right'
p59
aa(lp60
I1
aF67.367730140686035
aS'left'
p61
aa(lp62
I1
aF76.826574087142944
aS'right'
p63
aa(lp64
I1
aF103.31452107429504
aS'left'
p65
aa(lp66
I1
aF104.7835841178894
aS'right'
p67
aa(lp68
I2
aF14.340946197509766
aS'left'
p69
aa(lp70
I2
aF23.515788078308105
aS'right'
p71
aa(lp72
I2
aF32.723366022109985
aS'left'
p73
aa(lp74
I2
aF41.597779035568237
aS'right'
p75
aa(lp76
I2
aF43.716351985931396
aS'left'
p77
aa(lp78
I2
aF55.042343139648438
aS'left'
p79
aa(lp80
I2
aF63.415724039077759
aS'right'
p81
aa(lp82
I2
aF63.883102178573608
aS'right'
p83
aa(lp84
I2
aF80.414267063140869
aS'left'
p85
aa(lp86
I2
aF84.350840091705322
aS'right'
p87
aa(lp88
I2
aF88.371028184890747
aS'left'
p89
aa(lp90
I2
aF99.163418054580688
aS'right'
p91
aa(lp92
I2
aF105.48561215400696
aS'right'
p93
aa(lp94
I2
aF112.09110903739929
aS'right'
p95
aas.