(dp1
S'responses'
p2
(lp3
(lp4
I-1
aF2.803123950958252
aS'right'
p5
aa(lp6
I-1
aF9.3585259914398193
aS'left'
p7
aa(lp8
I-1
aF20.951730012893677
aS'right'
p9
aa(lp10
I-1
aF28.15818190574646
aS'left'
p11
aa(lp12
I0
aF0.73462605476379395
aS'right'
p13
aa(lp14
I0
aF5.6044819355010986
aS'left'
p15
aa(lp16
I0
aF9.8921740055084229
aS'right'
p17
aa(lp18
I0
aF16.113312005996704
aS'left'
p19
aa(lp20
I0
aF22.919221878051758
aS'right'
p21
aa(lp22
I0
aF32.61073899269104
aS'left'
p23
aa(lp24
I0
aF37.131110906600952
aS'right'
p25
aa(lp26
I0
aF41.434839963912964
aS'left'
p27
aa(lp28
I0
aF44.520900964736938
aS'right'
p29
aa(lp30
I0
aF47.056638956069946
aS'left'
p31
aa(lp32
I0
aF48.591870069503784
aS'right'
p33
aa(lp34
I0
aF57.015065908432007
aS'left'
p35
aa(lp36
I0
aF61.051758050918579
aS'right'
p37
aa(lp38
I0
aF63.019830942153931
aS'left'
p39
aa(lp40
I0
aF68.475395917892456
aS'right'
p41
aa(lp42
I0
aF72.361237049102783
aS'left'
p43
aa(lp44
I0
aF74.079809904098511
aS'right'
p45
aa(lp46
I0
aF77.13150691986084
aS'left'
p47
aa(lp48
I0
aF80.368705987930298
aS'right'
p49
aa(lp50
I0
aF81.552020072937012
aS'left'
p51
aa(lp52
I0
aF83.504477024078369
aS'right'
p53
aa(lp54
I0
aF87.941974878311157
aS'left'
p55
aa(lp56
I0
aF92.19419002532959
aS'right'
p57
aa(lp58
I0
aF97.865967035293579
aS'left'
p59
aa(lp60
I0
aF105.42223787307739
aS'right'
p61
aa(lp62
I0
aF107.10739493370056
aS'left'
p63
aa(lp64
I0
aF110.46007204055786
aS'right'
p65
aa(lp66
I0
aF115.83106803894043
aS'left'
p67
aa(lp68
I0
aF117.56632590293884
aS'right'
p69
aa(lp70
I0
aF118.98462104797363
aS'left'
p71
aas.