(dp1
S'responses'
p2
(lp3
(lp4
I-1
aF1.1840231418609619
aS'right'
p5
aa(lp6
I-1
aF15.813506126403809
aS'left'
p7
aa(lp8
I-1
aF26.506156206130981
aS'right'
p9
aa(lp10
I-1
aF29.525161027908325
aS'left'
p11
aa(lp12
I0
aF0.91096401214599609
aS'right'
p13
aa(lp14
I0
aF13.038440942764282
aS'left'
p15
aa(lp16
I0
aF31.120944023132324
aS'right'
p17
aa(lp18
I0
aF42.748036861419678
aS'left'
p19
aa(lp20
I0
aF57.760952949523926
aS'right'
p21
aa(lp22
I0
aF62.831504821777344
aS'left'
p23
aa(lp24
I0
aF68.219583988189697
aS'left'
p25
aa(lp26
I0
aF90.721541881561279
aS'right'
p27
aa(lp28
I0
aF98.746012926101685
aS'left'
p29
aa(lp30
I0
aF111.33949303627014
aS'right'
p31
aas.