(dp1
S'responses'
p2
(lp3
(lp4
I0
aF1.8049061298370361
aS'right'
p5
aa(lp6
I0
aF18.235531091690063
aS'left'
p7
aa(lp8
I0
aF33.465049982070923
aS'right'
p9
aa(lp10
I0
aF41.472217082977295
aS'left'
p11
aa(lp12
I0
aF44.9080650806427
aS'right'
p13
aa(lp14
I0
aF53.198953151702881
aS'left'
p15
aa(lp16
I0
aF56.468376159667969
aS'right'
p17
aa(lp18
I0
aF57.986316204071045
aS'left'
p19
aa(lp20
I0
aF62.707202196121216
aS'right'
p21
aa(lp22
I0
aF66.326186180114746
aS'left'
p23
aa(lp24
I0
aF68.929533004760742
aS'right'
p25
aa(lp26
I0
aF78.086363077163696
aS'left'
p27
aa(lp28
I0
aF82.290649175643921
aS'right'
p29
aa(lp30
I0
aF84.59222412109375
aS'left'
p31
aa(lp32
I0
aF88.712119102478027
aS'right'
p33
aa(lp34
I0
aF92.048178195953369
aS'left'
p35
aa(lp36
I0
aF92.715206146240234
aS'right'
p37
aa(lp38
I0
aF93.700682163238525
aS'left'
p39
aa(lp40
I0
aF96.385765075683594
aS'right'
p41
aa(lp42
I0
aF98.653869152069092
aS'left'
p43
aa(lp44
I0
aF102.70773005485535
aS'right'
p45
aa(lp46
I0
aF106.56104516983032
aS'left'
p47
aa(lp48
I0
aF112.89914703369141
aS'right'
p49
aa(lp50
I0
aF118.704421043396
aS'left'
p51
aa(lp52
I1
aF2.130573034286499
aS'right'
p53
aa(lp54
I1
aF3.6813290119171143
aS'left'
p55
aa(lp56
I1
aF5.6663289070129395
aS'right'
p57
aa(lp58
I1
aF7.9854979515075684
aS'left'
p59
aa(lp60
I1
aF10.487828016281128
aS'right'
p61
aa(lp62
I1
aF16.275361061096191
aS'left'
p63
aa(lp64
I1
aF23.78178596496582
aS'right'
p65
aa(lp66
I1
aF33.53994607925415
aS'left'
p67
aa(lp68
I1
aF48.652759075164795
aS'right'
p69
aa(lp70
I1
aF55.625553846359253
aS'left'
p71
aa(lp72
I1
aF62.131775856018066
aS'right'
p73
aa(lp74
I1
aF63.648715972900391
aS'left'
p75
aa(lp76
I1
aF72.673856019973755
aS'right'
p77
aa(lp78
I1
aF77.361067056655884
aS'left'
p79
aa(lp80
I1
aF91.739763975143433
aS'right'
p81
aa(lp82
I1
aF101.89831495285034
aS'left'
p83
aa(lp84
I1
aF104.90086507797241
aS'right'
p85
aa(lp86
I1
aF106.36922001838684
aS'left'
p87
aa(lp88
I1
aF108.07104992866516
aS'right'
p89
aa(lp90
I1
aF110.80674386024475
aS'left'
p91
aa(lp92
I1
aF115.66005086898804
aS'right'
p93
aa(lp94
I2
aF1.9436118602752686
aS'right'
p95
aa(lp96
I2
aF3.7119619846343994
aS'left'
p97
aa(lp98
I2
aF5.8131840229034424
aS'right'
p99
aa(lp100
I2
aF9.3161020278930664
aS'left'
p101
aa(lp102
I2
aF18.47481894493103
aS'right'
p103
aa(lp104
I2
aF20.792580842971802
aS'left'
p105
aa(lp106
I2
aF23.411756992340088
aS'right'
p107
aa(lp108
I2
aF39.392498970031738
aS'left'
p109
aa(lp110
I2
aF42.361140012741089
aS'right'
p111
aa(lp112
I2
aF43.378736972808838
aS'left'
p113
aa(lp114
I2
aF48.083255052566528
aS'right'
p115
aa(lp116
I2
aF58.024536848068237
aS'left'
p117
aa(lp118
I2
aF61.410791873931885
aS'right'
p119
aa(lp120
I2
aF64.714546918869019
aS'left'
p121
aa(lp122
I2
aF67.366353988647461
aS'right'
p123
aa(lp124
I2
aF72.786784887313843
aS'left'
p125
aa(lp126
I2
aF76.173244953155518
aS'right'
p127
aa(lp128
I2
aF77.441693067550659
aS'left'
p129
aa(lp130
I2
aF80.176676034927368
aS'right'
p131
aa(lp132
I2
aF82.595512866973877
aS'left'
p133
aa(lp134
I2
aF92.103322982788086
aS'right'
p135
aa(lp136
I2
aF101.52885890007019
aS'left'
p137
aa(lp138
I2
aF105.66581296920776
aS'right'
p139
aa(lp140
I2
aF108.61847496032715
aS'left'
p141
aa(lp142
I2
aF113.22225594520569
aS'right'
p143
aa(lp144
I2
aF119.74370002746582
aS'left'
p145
aas.