(dp1
S'responses'
p2
(lp3
(lp4
I0
aF7.9472458362579346
aS'left'
p5
aa(lp6
I1
aF1.6781961917877197
aS'left'
p7
aa(lp8
I1
aF84.881924152374268
aS'right'
p9
aa(lp10
I2
aF2.5543899536132812
aS'right'
p11
aas.