(dp1
S'responses'
p2
(lp3
(lp4
I-1
aF6.541801929473877
aS'right'
p5
aa(lp6
I-1
aF12.848124027252197
aS'left'
p7
aa(lp8
I-1
aF23.306915998458862
aS'left'
p9
aa(lp10
I-1
aF27.777132034301758
aS'right'
p11
aa(lp12
I0
aF2.7808189392089844
aS'right'
p13
aa(lp14
I0
aF16.209864854812622
aS'left'
p15
aa(lp16
I0
aF23.098397970199585
aS'right'
p17
aa(lp18
I0
aF34.158035039901733
aS'left'
p19
aa(lp20
I0
aF40.481494903564453
aS'right'
p21
aa(lp22
I0
aF47.42048192024231
aS'right'
p23
aa(lp24
I0
aF55.678037881851196
aS'right'
p25
aa(lp26
I0
aF67.071351051330566
aS'right'
p27
aa(lp28
I0
aF77.763922929763794
aS'right'
p29
aa(lp30
I0
aF85.988590955734253
aS'left'
p31
aa(lp32
I0
aF89.124100923538208
aS'right'
p33
aa(lp34
I0
aF98.232521057128906
aS'left'
p35
aa(lp36
I0
aF111.44402885437012
aS'right'
p37
aas.