(dp1
S'responses'
p2
(lp3
(lp4
I-1
aF4.5416350364685059
aS'left'
p5
aa(lp6
I-1
aF8.5455999374389648
aS'left'
p7
aa(lp8
I-1
aF9.9634549617767334
aS'right'
p9
aa(lp10
I-1
aF13.499266862869263
aS'right'
p11
aa(lp12
I-1
aF16.017845869064331
aS'left'
p13
aa(lp14
I-1
aF17.352747917175293
aS'right'
p15
aa(lp16
I-1
aF17.386417865753174
aS'left'
p17
aa(lp18
I-1
aF22.039840936660767
aS'right'
p19
aa(lp20
I-1
aF29.129132986068726
aS'right'
p21
aa(lp22
I0
aF0.28916311264038086
aS'right'
p23
aa(lp24
I0
aF0.87336993217468262
aS'right'
p25
aa(lp26
I0
aF4.893826961517334
aS'left'
p27
aa(lp28
I0
aF6.7612431049346924
aS'right'
p29
aa(lp30
I0
aF6.795659065246582
aS'left'
p31
aa(lp32
I0
aF9.0467500686645508
aS'right'
p33
aa(lp34
I0
aF10.381273984909058
aS'right'
p35
aa(lp36
I0
aF10.431308031082153
aS'left'
p37
aa(lp38
I0
aF10.648426055908203
aS'right'
p39
aa(lp40
I0
aF11.015974998474121
aS'right'
p41
aa(lp42
I0
aF11.882614135742188
aS'right'
p43
aa(lp44
I0
aF15.318411111831665
aS'right'
p45
aa(lp46
I0
aF18.154427051544189
aS'right'
p47
aa(lp48
I0
aF20.322872161865234
aS'left'
p49
aa(lp50
I0
aF20.339516162872314
aS'right'
p51
aa(lp52
I0
aF22.107594013214111
aS'right'
p53
aa(lp54
I0
aF27.429779052734375
aS'right'
p55
aa(lp56
I0
aF27.429779052734375
aS'left'
p57
aa(lp58
I0
aF28.379508018493652
aS'left'
p59
aa(lp60
I0
aF37.688630104064941
aS'left'
p61
aa(lp62
I0
aF42.558331966400146
aS'right'
p63
aa(lp64
I0
aF45.745036125183105
aS'right'
p65
aa(lp66
I0
aF48.079790115356445
aS'right'
p67
aa(lp68
I0
aF50.631778001785278
aS'left'
p69
aa(lp70
I0
aF55.052286148071289
aS'right'
p71
aa(lp72
I0
aF55.085484981536865
aS'left'
p73
aa(lp74
I0
aF56.169906139373779
aS'right'
p75
aa(lp76
I0
aF56.203789949417114
aS'left'
p77
aa(lp78
I0
aF57.33755898475647
aS'right'
p79
aa(lp80
I0
aF59.355792999267578
aS'left'
p81
aa(lp82
I0
aF60.139697074890137
aS'left'
p83
aa(lp84
I0
aF61.958647966384888
aS'left'
p85
aa(lp86
I0
aF62.692858934402466
aS'left'
p87
aa(lp88
I0
aF62.708655118942261
aS'right'
p89
aa(lp90
I0
aF64.810981035232544
aS'left'
p91
aa(lp92
I0
aF68.796986103057861
aS'right'
p93
aa(lp94
I0
aF72.767333030700684
aS'left'
p95
aa(lp96
I0
aF73.168421983718872
aS'right'
p97
aa(lp98
I0
aF76.737884998321533
aS'left'
p99
aa(lp100
I0
aF78.85620903968811
aS'right'
p101
aa(lp102
I0
aF78.889579057693481
aS'left'
p103
aa(lp104
I0
aF80.006308078765869
aS'right'
p105
aa(lp106
I0
aF82.258635997772217
aS'right'
p107
aa(lp108
I0
aF85.779143095016479
aS'left'
p109
aa(lp110
I0
aF91.133095026016235
aS'right'
p111
aa(lp112
I0
aF93.935173988342285
aS'right'
p113
aa(lp114
I0
aF95.369310140609741
aS'left'
p115
aa(lp116
I0
aF99.940210103988647
aS'left'
p117
aa(lp118
I0
aF103.81055808067322
aS'left'
p119
aa(lp120
I0
aF104.12746214866638
aS'left'
p121
aa(lp122
I0
aF108.1805100440979
aS'right'
p123
aa(lp124
I0
aF111.18315696716309
aS'right'
p125
aa(lp126
I0
aF119.22316193580627
aS'left'
p127
aas.