(dp1
S'responses'
p2
(lp3
(lp4
I-1
aF1.7423450946807861
aS'right'
p5
aa(lp6
I-1
aF7.8140120506286621
aS'right'
p7
aa(lp8
I-1
aF8.7321131229400635
aS'left'
p9
aa(lp10
I-1
aF14.520825147628784
aS'left'
p11
aa(lp12
I-1
aF18.006087064743042
aS'right'
p13
aa(lp14
I-1
aF20.157906055450439
aS'left'
p15
aa(lp16
I-1
aF22.343134164810181
aS'right'
p17
aa(lp18
I0
aF0.99402999877929688
aS'right'
p19
aa(lp20
I0
aF11.753337860107422
aS'left'
p21
aa(lp22
I0
aF20.410413026809692
aS'right'
p23
aa(lp24
I0
aF33.121417045593262
aS'left'
p25
aa(lp26
I0
aF44.831294059753418
aS'right'
p27
aa(lp28
I0
aF50.536110877990723
aS'right'
p29
aa(lp30
I0
aF57.876013994216919
aS'left'
p31
aa(lp32
I0
aF69.035047054290771
aS'right'
p33
aa(lp34
I0
aF77.792927980422974
aS'left'
p35
aa(lp36
I0
aF83.981137037277222
aS'right'
p37
aa(lp38
I0
aF91.587887048721313
aS'right'
p39
aa(lp40
I0
aF94.290781021118164
aS'left'
p41
aa(lp42
I0
aF96.124673843383789
aS'right'
p43
aa(lp44
I0
aF99.111553907394409
aS'left'
p45
aa(lp46
I0
aF109.03629589080811
aS'right'
p47
aas.