(dp1
S'responses'
p2
(lp3
(lp4
I0
aF2.0738720893859863
aS'right'
p5
aa(lp6
I0
aF4.4751360416412354
aS'left'
p7
aa(lp8
I0
aF16.753283023834229
aS'right'
p9
aa(lp10
I0
aF18.270840167999268
aS'left'
p11
aa(lp12
I0
aF20.522017002105713
aS'right'
p13
aa(lp14
I0
aF22.623905181884766
aS'left'
p15
aa(lp16
I0
aF24.592297077178955
aS'right'
p17
aa(lp18
I0
aF25.660267114639282
aS'left'
p19
aa(lp20
I0
aF33.100032091140747
aS'right'
p21
aa(lp22
I0
aF33.899871110916138
aS'left'
p23
aa(lp24
I0
aF35.484539985656738
aS'right'
p25
aa(lp26
I0
aF37.437369108200073
aS'left'
p27
aa(lp28
I0
aF40.272701025009155
aS'right'
p29
aa(lp30
I0
aF41.706680059432983
aS'left'
p31
aa(lp32
I0
aF42.941401958465576
aS'right'
p33
aa(lp34
I0
aF45.243841171264648
aS'left'
p35
aa(lp36
I0
aF49.313997030258179
aS'left'
p37
aa(lp38
I0
aF52.21549916267395
aS'right'
p39
aa(lp40
I0
aF54.584633111953735
aS'left'
p41
aa(lp42
I0
aF57.120182037353516
aS'right'
p43
aa(lp44
I0
aF65.911298036575317
aS'left'
p45
aa(lp46
I0
aF72.749603033065796
aS'right'
p47
aa(lp48
I0
aF77.920642137527466
aS'left'
p49
aa(lp50
I0
aF84.19252610206604
aS'right'
p51
aa(lp52
I0
aF90.681481122970581
aS'left'
p53
aa(lp54
I0
aF95.202682971954346
aS'right'
p55
aa(lp56
I0
aF101.15807914733887
aS'left'
p57
aa(lp58
I0
aF106.71237897872925
aS'right'
p59
aa(lp60
I1
aF0.99208998680114746
aS'right'
p61
aa(lp62
I1
aF14.703484773635864
aS'left'
p63
aa(lp64
I1
aF20.843213796615601
aS'right'
p65
aa(lp66
I1
aF34.070177793502808
aS'left'
p67
aa(lp68
I1
aF50.700727939605713
aS'right'
p69
aa(lp70
I1
aF58.207756996154785
aS'left'
p71
aa(lp72
I1
aF72.519262790679932
aS'right'
p73
aa(lp74
I1
aF96.456751823425293
aS'left'
p75
aa(lp76
I1
aF105.53068900108337
aS'right'
p77
aa(lp78
I1
aF113.38811182975769
aS'left'
p79
aa(lp80
I2
aF1.9242358207702637
aS'right'
p81
aa(lp82
I2
aF14.234928846359253
aS'left'
p83
aa(lp84
I2
aF22.47565484046936
aS'right'
p85
aa(lp86
I2
aF28.797646999359131
aS'left'
p87
aa(lp88
I2
aF32.234403848648071
aS'right'
p89
aa(lp90
I2
aF36.954077959060669
aS'left'
p91
aa(lp92
I2
aF41.592022895812988
aS'right'
p93
aa(lp94
I2
aF47.930295944213867
aS'left'
p95
aa(lp96
I2
aF50.532408952713013
aS'right'
p97
aa(lp98
I2
aF67.430018901824951
aS'left'
p99
aa(lp100
I2
aF73.135441780090332
aS'right'
p101
aa(lp102
I2
aF90.934165954589844
aS'left'
p103
aa(lp104
I2
aF96.605146884918213
aS'right'
p105
aa(lp106
I2
aF104.29431986808777
aS'left'
p107
aa(lp108
I2
aF106.96347284317017
aS'right'
p109
aa(lp110
I2
aF117.07260584831238
aS'left'
p111
aas.