(dp1
S'responses'
p2
(lp3
(lp4
I0
aF1.0499510765075684
aS'left'
p5
aa(lp6
I0
aF5.1874151229858398
aS'right'
p7
aa(lp8
I0
aF9.1740610599517822
aS'left'
p9
aa(lp10
I0
aF14.411420106887817
aS'right'
p11
aa(lp12
I0
aF23.068928003311157
aS'left'
p13
aa(lp14
I0
aF32.844967126846313
aS'right'
p15
aa(lp16
I0
aF43.987519979476929
aS'left'
p17
aa(lp18
I0
aF54.096822023391724
aS'right'
p19
aa(lp20
I0
aF65.656196117401123
aS'left'
p21
aa(lp22
I0
aF74.397910118103027
aS'right'
p23
aa(lp24
I0
aF88.093348979949951
aS'left'
p25
aa(lp26
I0
aF97.267287969589233
aS'right'
p27
aa(lp28
I0
aF106.90934896469116
aS'left'
p29
aa(lp30
I0
aF117.20157313346863
aS'right'
p31
aa(lp32
I1
aF1.6977958679199219
aS'left'
p33
aa(lp34
I1
aF11.589980840682983
aS'right'
p35
aa(lp36
I1
aF18.062672853469849
aS'left'
p37
aa(lp38
I1
aF24.434188842773438
aS'right'
p39
aa(lp40
I1
aF29.03895902633667
aS'left'
p41
aa(lp42
I1
aF47.05499005317688
aS'left'
p43
aa(lp44
I1
aF55.294777870178223
aS'right'
p45
aa(lp46
I1
aF61.90059494972229
aS'left'
p47
aa(lp48
I1
aF72.076038837432861
aS'right'
p49
aa(lp50
I1
aF81.668627023696899
aS'left'
p51
aa(lp52
I1
aF89.291951894760132
aS'right'
p53
aa(lp54
I1
aF98.416615009307861
aS'left'
p55
aa(lp56
I1
aF106.74026298522949
aS'left'
p57
aa(lp58
I1
aF108.32541990280151
aS'right'
p59
aa(lp60
I1
aF118.09963703155518
aS'left'
p61
aa(lp62
I2
aF2.9342780113220215
aS'left'
p63
aa(lp64
I2
aF7.5883779525756836
aS'right'
p65
aa(lp66
I2
aF16.062263011932373
aS'left'
p67
aa(lp68
I2
aF26.171126842498779
aS'right'
p69
aa(lp70
I2
aF32.626654863357544
aS'left'
p71
aa(lp72
I2
aF41.467983961105347
aS'right'
p73
aa(lp74
I2
aF51.927403926849365
aS'left'
p75
aa(lp76
I2
aF64.55522084236145
aS'left'
p77
aa(lp78
I2
aF71.928289890289307
aS'right'
p79
aa(lp80
I2
aF81.252056837081909
aS'left'
p81
aa(lp82
I2
aF89.310259819030762
aS'right'
p83
aa(lp84
I2
aF103.92258501052856
aS'left'
p85
aa(lp86
I2
aF108.50946998596191
aS'right'
p87
aas.