(dp1
S'responses'
p2
(lp3
(lp4
I-1
aF1.2617659568786621
aS'right'
p5
aa(lp6
I-1
aF13.654644012451172
aS'left'
p7
aa(lp8
I-1
aF25.298315048217773
aS'right'
p9
aa(lp10
I0
aF2.7758162021636963
aS'right'
p11
aa(lp12
I0
aF8.7642440795898438
aS'left'
p13
aa(lp14
I0
aF19.706191062927246
aS'right'
p15
aa(lp16
I0
aF25.561130046844482
aS'left'
p17
aa(lp18
I0
aF27.712997198104858
aS'right'
p19
aa(lp20
I0
aF34.636474132537842
aS'left'
p21
aa(lp22
I0
aF43.126085042953491
aS'right'
p23
aa(lp24
I0
aF54.335508108139038
aS'left'
p25
aa(lp26
I0
aF68.664615154266357
aS'right'
p27
aa(lp28
I0
aF77.338399171829224
aS'left'
p29
aa(lp30
I0
aF86.762639045715332
aS'right'
p31
aa(lp32
I0
aF98.44000506401062
aS'left'
p33
aa(lp34
I0
aF110.76702809333801
aS'right'
p35
aa(lp36
I0
aF118.32358813285828
aS'left'
p37
aas.