(dp1
S'responses'
p2
(lp3
(lp4
I0
aF33.593092918395996
aS'right'
p5
aa(lp6
I0
aF53.77646803855896
aS'left'
p7
aa(lp8
I0
aF62.650518894195557
aS'left'
p9
aa(lp10
I0
aF73.893775939941406
aS'left'
p11
aa(lp12
I0
aF79.081490039825439
aS'left'
p13
aa(lp14
I0
aF93.376298904418945
aS'left'
p15
aa(lp16
I0
aF107.45468497276306
aS'left'
p17
aa(lp18
I0
aF114.86090683937073
aS'right'
p19
aa(lp20
I1
aF2.6534781455993652
aS'right'
p21
aa(lp22
I1
aF15.848911046981812
aS'right'
p23
aa(lp24
I1
aF17.983504056930542
aS'left'
p25
aa(lp26
I1
aF27.174979209899902
aS'right'
p27
aa(lp28
I1
aF31.828444004058838
aS'left'
p29
aa(lp30
I1
aF49.377485990524292
aS'right'
p31
aa(lp32
I1
aF79.686127185821533
aS'right'
p33
aa(lp34
I1
aF81.170124053955078
aS'left'
p35
aa(lp36
I1
aF83.73980712890625
aS'right'
p37
aa(lp38
I1
aF85.60728907585144
aS'left'
p39
aa(lp40
I1
aF94.715734004974365
aS'right'
p41
aa(lp42
I1
aF114.38224315643311
aS'left'
p43
aa(lp44
I1
aF115.28301405906677
aS'right'
p45
aa(lp46
I1
aF119.81940817832947
aS'right'
p47
aa(lp48
I2
aF4.6247360706329346
aS'right'
p49
aa(lp50
I2
aF17.452096939086914
aS'left'
p51
aa(lp52
I2
aF18.919397115707397
aS'right'
p53
aa(lp54
I2
aF23.140748977661133
aS'left'
p55
aa(lp56
I2
aF24.625114917755127
aS'right'
p57
aa(lp58
I2
aF25.358966112136841
aS'left'
p59
aa(lp60
I2
aF26.059493064880371
aS'right'
p61
aa(lp62
I2
aF39.887692928314209
aS'left'
p63
aa(lp64
I2
aF48.344316005706787
aS'right'
p65
aa(lp66
I2
aF72.582364082336426
aS'left'
p67
aa(lp68
I2
aF73.249425888061523
aS'left'
p69
aa(lp70
I2
aF74.166820049285889
aS'right'
p71
aa(lp72
I2
aF84.791974067687988
aS'left'
p73
aa(lp74
I2
aF89.330070018768311
aS'right'
p75
aa(lp76
I2
aF97.536262035369873
aS'left'
p77
aa(lp78
I2
aF102.69097304344177
aS'left'
p79
aa(lp80
I2
aF113.53365397453308
aS'left'
p81
aa(lp82
I2
aF114.83480906486511
aS'right'
p83
aas.