(dp1
S'responses'
p2
(lp3
(lp4
I-1
aF1.9602611064910889
aS'right'
p5
aa(lp6
I-1
aF6.4311690330505371
aS'left'
p7
aa(lp8
I-1
aF25.413083076477051
aS'right'
p9
aa(lp10
I0
aF1.0038471221923828
aS'right'
p11
aa(lp12
I0
aF14.765459060668945
aS'left'
p13
aa(lp14
I0
aF23.222963094711304
aS'right'
p15
aa(lp16
I0
aF27.442325115203857
aS'left'
p17
aa(lp18
I0
aF36.816925048828125
aS'right'
p19
aa(lp20
I0
aF47.309091091156006
aS'left'
p21
aa(lp22
I0
aF49.244466066360474
aS'right'
p23
aa(lp24
I0
aF57.80156421661377
aS'left'
p25
aa(lp26
I0
aF69.311546087265015
aS'right'
p27
aa(lp28
I0
aF85.391253232955933
aS'left'
p29
aa(lp30
I0
aF87.726619005203247
aS'right'
p31
aa(lp32
I0
aF98.319259166717529
aS'left'
p33
aa(lp34
I0
aF111.39687919616699
aS'right'
p35
aas.