(dp1
S'responses'
p2
(lp3
(lp4
I0
aF4.4851710796356201
aS'left'
p5
aa(lp6
I0
aF30.441845893859863
aS'left'
p7
aa(lp8
I0
aF46.405229091644287
aS'left'
p9
aa(lp10
I0
aF87.008343935012817
aS'left'
p11
aa(lp12
I0
aF100.41999697685242
aS'left'
p13
aa(lp14
I0
aF110.79644894599915
aS'left'
p15
aa(lp16
I0
aF112.64782786369324
aS'right'
p17
aa(lp18
I0
aF114.68286490440369
aS'right'
p19
aa(lp20
I1
aF4.2987771034240723
aS'left'
p21
aa(lp22
I1
aF11.939280986785889
aS'right'
p23
aa(lp24
I1
aF20.546267032623291
aS'right'
p25
aa(lp26
I1
aF37.594676971435547
aS'right'
p27
aa(lp28
I1
aF38.762605905532837
aS'left'
p29
aa(lp30
I1
aF44.450984954833984
aS'left'
p31
aa(lp32
I1
aF45.802932977676392
aS'right'
p33
aa(lp34
I1
aF57.313090085983276
aS'left'
p35
aa(lp36
I1
aF62.050266027450562
aS'right'
p37
aa(lp38
I1
aF66.554563045501709
aS'right'
p39
aa(lp40
I1
aF70.924890041351318
aS'left'
p41
aa(lp42
I1
aF75.144691944122314
aS'right'
p43
aa(lp44
I1
aF82.401715993881226
aS'right'
p45
aa(lp46
I1
aF88.79056191444397
aS'right'
p47
aa(lp48
I1
aF94.862909078598022
aS'left'
p49
aa(lp50
I1
aF105.77181601524353
aS'left'
p51
aa(lp52
I1
aF112.61120700836182
aS'left'
p53
aa(lp54
I2
aF6.0016279220581055
aS'right'
p55
aa(lp56
I2
aF15.860249996185303
aS'left'
p57
aa(lp58
I2
aF19.097370862960815
aS'right'
p59
aa(lp60
I2
aF33.809453964233398
aS'right'
p61
aa(lp62
I2
aF41.950192928314209
aS'left'
p63
aa(lp64
I2
aF52.676277875900269
aS'left'
p65
aa(lp66
I2
aF57.514066934585571
aS'left'
p67
aa(lp68
I2
aF64.186412811279297
aS'left'
p69
aa(lp70
I2
aF78.682544946670532
aS'left'
p71
aa(lp72
I2
aF85.822641849517822
aS'left'
p73
aa(lp74
I2
aF95.764314889907837
aS'left'
p75
aa(lp76
I2
aF102.00332093238831
aS'left'
p77
aa(lp78
I2
aF110.46091485023499
aS'left'
p79
aa(lp80
I2
aF117.0163369178772
aS'left'
p81
aas.