(dp1
S'responses'
p2
(lp3
(lp4
I0
aF1.2993068695068359
aS'right'
p5
aa(lp6
I0
aF4.3185439109802246
aS'left'
p7
aa(lp8
I0
aF6.8541059494018555
aS'right'
p9
aa(lp10
I0
aF9.2903909683227539
aS'left'
p11
aa(lp12
I0
aF10.941572904586792
aS'right'
p13
aa(lp14
I0
aF12.693110942840576
aS'left'
p15
aa(lp16
I0
aF14.761648893356323
aS'right'
p17
aa(lp18
I0
aF15.845193862915039
aS'left'
p19
aa(lp20
I0
aF17.413865804672241
aS'right'
p21
aa(lp22
I0
aF20.032145977020264
aS'left'
p23
aa(lp24
I0
aF24.068887948989868
aS'right'
p25
aa(lp26
I0
aF26.887998819351196
aS'left'
p27
aa(lp28
I0
aF28.740309953689575
aS'right'
p29
aa(lp30
I0
aF30.341549873352051
aS'left'
p31
aa(lp32
I0
aF32.309337854385376
aS'right'
p33
aa(lp34
I0
aF36.129150867462158
aS'left'
p35
aa(lp36
I0
aF38.564491987228394
aS'right'
p37
aa(lp38
I0
aF41.767765998840332
aS'left'
p39
aa(lp40
I0
aF44.052392959594727
aS'right'
p41
aa(lp42
I0
aF45.070047855377197
aS'left'
p43
aa(lp44
I0
aF46.103966951370239
aS'right'
p45
aa(lp46
I0
aF47.105289936065674
aS'left'
p47
aa(lp48
I0
aF48.006568908691406
aS'right'
p49
aa(lp50
I0
aF49.690997838973999
aS'left'
p51
aa(lp52
I0
aF51.492117881774902
aS'right'
p53
aa(lp54
I0
aF53.444738864898682
aS'left'
p55
aa(lp56
I0
aF55.112633943557739
aS'right'
p57
aa(lp58
I0
aF59.533267974853516
aS'left'
p59
aa(lp60
I0
aF63.569852828979492
aS'right'
p61
aa(lp62
I0
aF67.573641777038574
aS'left'
p63
aa(lp64
I0
aF71.559717893600464
aS'right'
p65
aa(lp66
I0
aF73.778801918029785
aS'left'
p67
aa(lp68
I0
aF76.312924861907959
aS'right'
p69
aa(lp70
I0
aF78.097990989685059
aS'left'
p71
aa(lp72
I0
aF80.050039768218994
aS'right'
p73
aa(lp74
I0
aF82.285725831985474
aS'left'
p75
aa(lp76
I0
aF84.620268821716309
aS'right'
p77
aa(lp78
I0
aF88.090905904769897
aS'left'
p79
aa(lp80
I0
aF90.859308958053589
aS'right'
p81
aa(lp82
I0
aF95.696877956390381
aS'left'
p83
aa(lp84
I0
aF99.917110919952393
aS'right'
p85
aa(lp86
I0
aF104.30384278297424
aS'left'
p87
aa(lp88
I0
aF108.24060392379761
aS'right'
p89
aa(lp90
I0
aF112.39426493644714
aS'left'
p91
aa(lp92
I0
aF115.56379890441895
aS'right'
p93
aa(lp94
I0
aF118.14892983436584
aS'left'
p95
aa(lp96
I1
aF2.0265491008758545
aS'left'
p97
aa(lp98
I1
aF5.2458889484405518
aS'right'
p99
aa(lp100
I1
aF9.1658399105072021
aS'left'
p101
aa(lp102
I1
aF12.802206039428711
aS'right'
p103
aa(lp104
I1
aF16.571975946426392
aS'left'
p105
aa(lp106
I1
aF20.74218487739563
aS'right'
p107
aa(lp108
I1
aF22.827358961105347
aS'left'
p109
aa(lp110
I1
aF24.612159967422485
aS'right'
p111
aa(lp112
I1
aF26.530716896057129
aS'left'
p113
aa(lp114
I1
aF28.248112916946411
aS'right'
p115
aa(lp116
I1
aF30.150175094604492
aS'left'
p117
aa(lp118
I1
aF32.267915964126587
aS'right'
p119
aa(lp120
I1
aF33.902904987335205
aS'left'
p121
aa(lp122
I1
aF35.771878957748413
aS'right'
p123
aa(lp124
I1
aF37.506568908691406
aS'left'
p125
aa(lp126
I1
aF39.208266973495483
aS'right'
p127
aa(lp128
I1
aF41.0261390209198
aS'left'
p129
aa(lp130
I1
aF43.378252983093262
aS'right'
p131
aa(lp132
I1
aF45.229261875152588
aS'left'
p133
aa(lp134
I1
aF47.49833607673645
aS'right'
p135
aa(lp136
I1
aF49.433377981185913
aS'left'
p137
aa(lp138
I1
aF53.970015048980713
aS'right'
p139
aa(lp140
I1
aF57.506701946258545
aS'left'
p141
aa(lp142
I1
aF61.21028208732605
aS'right'
p143
aa(lp144
I1
aF63.995769023895264
aS'left'
p145
aa(lp146
I1
aF69.683804988861084
aS'right'
p147
aa(lp148
I1
aF72.986515998840332
aS'right'
p149
aa(lp150
I1
aF75.239156007766724
aS'left'
p151
aa(lp152
I1
aF81.97754693031311
aS'right'
p153
aa(lp154
I1
aF88.199228048324585
aS'left'
p155
aa(lp156
I1
aF90.785609006881714
aS'right'
p157
aa(lp158
I1
aF93.487112045288086
aS'left'
p159
aa(lp160
I1
aF95.839025974273682
aS'right'
p161
aa(lp162
I1
aF98.875781059265137
aS'left'
p163
aa(lp164
I1
aF103.61263990402222
aS'left'
p165
aa(lp166
I1
aF103.93006610870361
aS'right'
p167
aa(lp168
I1
aF107.51578497886658
aS'left'
p169
aa(lp170
I1
aF108.63341188430786
aS'right'
p171
aa(lp172
I1
aF109.63518500328064
aS'left'
p173
aa(lp174
I1
aF111.13619494438171
aS'right'
p175
aa(lp176
I1
aF113.17058110237122
aS'left'
p177
aa(lp178
I1
aF115.33917808532715
aS'right'
p179
aa(lp180
I1
aF116.90772008895874
aS'left'
p181
aa(lp182
I1
aF118.7420060634613
aS'right'
p183
aa(lp184
I2
aF1.3666009902954102
aS'right'
p185
aa(lp186
I2
aF5.3027927875518799
aS'right'
p187
aa(lp188
I2
aF8.2895867824554443
aS'right'
p189
aa(lp190
I2
aF9.573868989944458
aS'left'
p191
aa(lp192
I2
aF11.241386890411377
aS'right'
p193
aa(lp194
I2
aF12.709589958190918
aS'left'
p195
aa(lp196
I2
aF14.227797985076904
aS'right'
p197
aa(lp198
I2
aF16.195514917373657
aS'left'
p199
aa(lp200
I2
aF19.23232889175415
aS'right'
p201
aa(lp202
I2
aF21.617194890975952
aS'left'
p203
aa(lp204
I2
aF27.505631923675537
aS'right'
p205
aa(lp206
I2
aF32.576113939285278
aS'left'
p207
aa(lp208
I2
aF35.6629478931427
aS'left'
p209
aa(lp210
I2
aF38.214939832687378
aS'right'
p211
aa(lp212
I2
aF42.684769868850708
aS'left'
p213
aa(lp214
I2
aF44.436962842941284
aS'right'
p215
aa(lp216
I2
aF48.923381805419922
aS'left'
p217
aa(lp218
I2
aF51.74260687828064
aS'right'
p219
aa(lp220
I2
aF55.713250875473022
aS'left'
p221
aa(lp222
I2
aF63.402263879776001
aS'right'
p223
aa(lp224
I2
aF68.356426954269409
aS'left'
p225
aa(lp226
I2
aF72.476723909378052
aS'right'
p227
aa(lp228
I2
aF75.930052995681763
aS'left'
p229
aa(lp230
I2
aF82.268762826919556
aS'right'
p231
aa(lp232
I2
aF87.756388902664185
aS'left'
p233
aa(lp234
I2
aF93.52815580368042
aS'right'
p235
aa(lp236
I2
aF96.213827848434448
aS'right'
p237
aa(lp238
I2
aF99.383018970489502
aS'left'
p239
aa(lp240
I2
aF103.62059688568115
aS'right'
p241
aa(lp242
I2
aF114.36285185813904
aS'right'
p243
aa(lp244
I2
aF117.09820580482483
aS'left'
p245
aas.