(dp1
S'responses'
p2
(lp3
(lp4
I-1
aF1.9952239990234375
aS'right'
p5
aa(lp6
I-1
aF4.4310269355773926
aS'right'
p7
aa(lp8
I-1
aF6.7829608917236328
aS'right'
p9
aa(lp10
I-1
aF9.152440071105957
aS'right'
p11
aa(lp12
I-1
aF10.669501066207886
aS'left'
p13
aa(lp14
I-1
aF25.866038084030151
aS'right'
p15
aa(lp16
I0
aF0.98119187355041504
aS'right'
p17
aa(lp18
I0
aF5.3192389011383057
aS'left'
p19
aa(lp20
I0
aF10.906598806381226
aS'right'
p21
aa(lp22
I0
aF15.410961866378784
aS'left'
p23
aa(lp24
I0
aF20.648581981658936
aS'right'
p25
aa(lp26
I0
aF34.360111951828003
aS'left'
p27
aa(lp28
I0
aF37.597151041030884
aS'right'
p29
aa(lp30
I0
aF44.06851601600647
aS'left'
p31
aa(lp32
I0
aF54.144709825515747
aS'right'
p33
aa(lp34
I0
aF58.531333923339844
aS'left'
p35
aa(lp36
I0
aF62.802291870117188
aS'right'
p37
aa(lp38
I0
aF68.156733989715576
aS'left'
p39
aa(lp40
I0
aF70.091454029083252
aS'right'
p41
aa(lp42
I0
aF79.198710918426514
aS'left'
p43
aa(lp44
I0
aF88.073241949081421
aS'right'
p45
aa(lp46
I0
aF91.910948038101196
aS'left'
p47
aa(lp48
I0
aF95.880285978317261
aS'right'
p49
aa(lp50
I0
aF100.80140590667725
aS'left'
p51
aa(lp52
I0
aF102.31908583641052
aS'right'
p53
aa(lp54
I0
aF105.53818082809448
aS'left'
p55
aa(lp56
I0
aF108.77469491958618
aS'right'
p57
aa(lp58
I0
aF110.4930419921875
aS'left'
p59
aa(lp60
I0
aF115.48079395294189
aS'left'
p61
aa(lp62
I0
aF116.48162484169006
aS'right'
p63
aas.