(dp1
S'responses'
p2
(lp3
(lp4
I-1
aF2.0580179691314697
aS'right'
p5
aa(lp6
I-1
aF19.773737907409668
aS'left'
p7
aa(lp8
I0
aF0.8747258186340332
aS'right'
p9
aa(lp10
I0
aF14.319132804870605
aS'left'
p11
aa(lp12
I0
aF23.126958847045898
aS'right'
p13
aa(lp14
I0
aF36.054930925369263
aS'left'
p15
aa(lp16
I0
aF68.632146835327148
aS'right'
p17
aa(lp18
I0
aF77.839911937713623
aS'left'
p19
aa(lp20
I0
aF86.997612953186035
aS'right'
p21
aa(lp22
I0
aF90.584076881408691
aS'left'
p23
aa(lp24
I0
aF114.20368981361389
aS'right'
p25
aa(lp26
I0
aF119.79237389564514
aS'left'
p27
aas.