(dp1
S'responses'
p2
(lp3
(lp4
I-1
aF8.1878359317779541
aS'left'
p5
aa(lp6
I-1
aF8.7056548595428467
aS'right'
p7
aa(lp8
I-1
aF13.008615016937256
aS'left'
p9
aa(lp10
I-1
aF24.08548903465271
aS'right'
p11
aa(lp12
I0
aF1.2187840938568115
aS'right'
p13
aa(lp14
I0
aF6.3061609268188477
aS'left'
p15
aa(lp16
I0
aF17.29980993270874
aS'right'
p17
aa(lp18
I0
aF29.927263975143433
aS'left'
p19
aa(lp20
I0
aF47.1580970287323
aS'right'
p21
aa(lp22
I0
aF71.89682412147522
aS'right'
p23
aa(lp24
I0
aF76.416604995727539
aS'left'
p25
aa(lp26
I0
aF85.173999071121216
aS'right'
p27
aa(lp28
I0
aF100.50388693809509
aS'left'
p29
aa(lp30
I0
aF112.01387000083923
aS'right'
p31
aa(lp32
I0
aF118.80300211906433
aS'left'
p33
aas.