(dp1
S'responses'
p2
(lp3
(lp4
I0
aF0.99838018417358398
aS'left'
p5
aa(lp6
I0
aF6.552152156829834
aS'right'
p7
aa(lp8
I0
aF12.140429019927979
aS'left'
p9
aa(lp10
I0
aF15.710066080093384
aS'right'
p11
aa(lp12
I0
aF30.70610499382019
aS'left'
p13
aa(lp14
I0
aF52.975099086761475
aS'right'
p15
aa(lp16
I0
aF55.27740216255188
aS'left'
p17
aa(lp18
I0
aF58.413828134536743
aS'right'
p19
aa(lp20
I0
aF69.122562170028687
aS'right'
p21
aa(lp22
I0
aF75.995463132858276
aS'right'
p23
aa(lp24
I0
aF92.692670106887817
aS'left'
p25
aa(lp26
I0
aF116.86304521560669
aS'right'
p27
aa(lp28
I1
aF1.2275998592376709
aS'right'
p29
aa(lp30
I1
aF23.96318793296814
aS'left'
p31
aa(lp32
I1
aF42.028941869735718
aS'right'
p33
aa(lp34
I1
aF68.768692970275879
aS'left'
p35
aa(lp36
I1
aF80.19424295425415
aS'right'
p37
aa(lp38
I1
aF89.469452857971191
aS'left'
p39
aa(lp40
I1
aF92.338435888290405
aS'right'
p41
aa(lp42
I1
aF97.792952060699463
aS'left'
p43
aa(lp44
I1
aF101.9964599609375
aS'left'
p45
aa(lp46
I1
aF110.25359606742859
aS'left'
p47
aa(lp48
I1
aF110.52080893516541
aS'right'
p49
aa(lp50
I1
aF115.70800089836121
aS'right'
p51
aa(lp52
I1
aF119.51160907745361
aS'left'
p53
aa(lp54
I2
aF1.1205871105194092
aS'left'
p55
aa(lp56
I2
aF7.9766449928283691
aS'right'
p57
aa(lp58
I2
aF17.417323112487793
aS'left'
p59
aa(lp60
I2
aF26.876350879669189
aS'right'
p61
aa(lp62
I2
aF32.14643406867981
aS'left'
p63
aa(lp64
I2
aF39.536367893218994
aS'right'
p65
aa(lp66
I2
aF44.040399074554443
aS'right'
p67
aa(lp68
I2
aF54.949398994445801
aS'right'
p69
aa(lp70
I2
aF59.971209049224854
aS'right'
p71
aa(lp72
I2
aF62.622850894927979
aS'left'
p73
aa(lp74
I2
aF69.028459072113037
aS'right'
p75
aa(lp76
I2
aF69.445133924484253
aS'left'
p77
aa(lp78
I2
aF75.36750602722168
aS'right'
p79
aa(lp80
I2
aF83.957648992538452
aS'right'
p81
aa(lp82
I2
aF88.978868007659912
aS'right'
p83
aa(lp84
I2
aF92.548655033111572
aS'right'
p85
aa(lp86
I2
aF98.220081090927124
aS'right'
p87
aa(lp88
I2
aF104.20843005180359
aS'left'
p89
aa(lp90
I2
aF108.14484906196594
aS'left'
p91
aa(lp92
I2
aF111.94856595993042
aS'right'
p93
aa(lp94
I2
aF113.56609106063843
aS'right'
p95
aa(lp96
I2
aF119.97155809402466
aS'left'
p97
aas.