(dp1
S'responses'
p2
(lp3
(lp4
I-1
aF1.6649761199951172
aS'left'
p5
aa(lp6
I-1
aF7.5041000843048096
aS'right'
p7
aa(lp8
I-1
aF13.309261083602905
aS'left'
p9
aa(lp10
I-1
aF19.231045961380005
aS'right'
p11
aa(lp12
I0
aF1.2382559776306152
aS'right'
p13
aa(lp14
I0
aF12.414312839508057
aS'left'
p15
aa(lp16
I0
aF21.656308889389038
aS'right'
p17
aa(lp18
I0
aF32.198111057281494
aS'right'
p19
aa(lp20
I0
aF37.319264888763428
aS'left'
p21
aa(lp22
I0
aF47.06102991104126
aS'right'
p23
aa(lp24
I0
aF61.022783994674683
aS'left'
p25
aa(lp26
I0
aF71.098656892776489
aS'right'
p27
aa(lp28
I0
aF79.33895206451416
aS'left'
p29
aa(lp30
I0
aF89.496800899505615
aS'right'
p31
aa(lp32
I0
aF101.25707387924194
aS'left'
p33
aa(lp34
I0
aF110.59812903404236
aS'right'
p35
aa(lp36
I0
aF117.50475907325745
aS'right'
p37
aas.