(dp1
S'responses'
p2
(lp3
(lp4
I-1
aF1.2656199932098389
aS'right'
p5
aa(lp6
I0
aF0.82280206680297852
aS'right'
p7
aa(lp8
I0
aF17.821246147155762
aS'left'
p9
aa(lp10
I0
aF21.574120044708252
aS'right'
p11
aa(lp12
I0
aF34.835952997207642
aS'left'
p13
aa(lp14
I0
aF40.090731143951416
aS'right'
p15
aa(lp16
I0
aF46.562268972396851
aS'left'
p17
aa(lp18
I0
aF48.481242179870605
aS'right'
p19
aa(lp20
I0
aF57.722854137420654
aS'left'
p21
aa(lp22
I0
aF67.464593172073364
aS'right'
p23
aa(lp24
I0
aF74.052786111831665
aS'left'
p25
aa(lp26
I0
aF80.391662120819092
aS'right'
p27
aa(lp28
I0
aF82.143717050552368
aS'left'
p29
aa(lp30
I0
aF84.445571184158325
aS'right'
p31
aa(lp32
I0
aF86.530622005462646
aS'left'
p33
aa(lp34
I0
aF98.673810005187988
aS'left'
p35
aa(lp36
I0
aF100.60920000076294
aS'right'
p37
aa(lp38
I0
aF113.119961977005
aS'right'
p39
aa(lp40
I0
aF115.63945698738098
aS'left'
p41
aas.