(dp1
S'responses'
p2
(lp3
(lp4
I-1
aF1.4286708831787109
aS'right'
p5
aa(lp6
I-1
aF4.6317198276519775
aS'right'
p7
aa(lp8
I-1
aF18.277295827865601
aS'left'
p9
aa(lp10
I0
aF0.87733697891235352
aS'right'
p11
aa(lp12
I0
aF12.433174133300781
aS'left'
p13
aa(lp14
I0
aF26.028366088867188
aS'right'
p15
aa(lp16
I0
aF34.636224031448364
aS'left'
p17
aa(lp18
I0
aF48.847920179367065
aS'right'
p19
aa(lp20
I0
aF57.743206024169922
aS'left'
p21
aa(lp22
I0
aF68.952363967895508
aS'right'
p23
aa(lp24
I0
aF77.742810964584351
aS'left'
p25
aa(lp26
I0
aF86.897235155105591
aS'right'
p27
aa(lp28
I0
aF97.960412979125977
aS'left'
p29
aa(lp30
I0
aF111.21837115287781
aS'right'
p31
aas.