(dp1
S'responses'
p2
(lp3
(lp4
I-2
aF3.7125029563903809
aS'left'
p5
aa(lp6
I-2
aF4.6962599754333496
aS'right'
p7
aa(lp8
I-2
aF6.7148010730743408
aS'right'
p9
aa(lp10
I-2
aF11.285393953323364
aS'right'
p11
aa(lp12
I-2
aF13.337503910064697
aS'left'
p13
aa(lp14
I-2
aF16.072870016098022
aS'left'
p15
aa(lp16
I-2
aF16.723510026931763
aS'right'
p17
aa(lp18
I-2
aF20.611063003540039
aS'right'
p19
aa(lp20
I-2
aF21.144248008728027
aS'left'
p21
aa(lp22
I-2
aF23.161983966827393
aS'right'
p23
aa(lp24
I-2
aF23.963109970092773
aS'left'
p25
aa(lp26
I-2
aF25.348265886306763
aS'right'
p27
aa(lp28
I0
aF2.008965015411377
aS'right'
p29
aa(lp30
I0
aF4.94486403465271
aS'left'
p31
aa(lp32
I0
aF10.849956035614014
aS'right'
p33
aa(lp34
I0
aF11.667886972427368
aS'right'
p35
aa(lp36
I0
aF15.120853900909424
aS'left'
p37
aa(lp38
I0
aF16.37172794342041
aS'right'
p39
aa(lp40
I0
aF18.073606967926025
aS'left'
p41
aa(lp42
I0
aF19.191602945327759
aS'right'
p43
aa(lp44
I0
aF19.975667953491211
aS'left'
p45
aa(lp46
I0
aF20.791758060455322
aS'right'
p47
aa(lp48
I0
aF28.232600927352905
aS'right'
p49
aa(lp50
I0
aF28.766481876373291
aS'left'
p51
aa(lp52
I0
aF30.367223978042603
aS'left'
p53
aa(lp54
I0
aF31.168207883834839
aS'right'
p55
aa(lp56
I0
aF33.437084913253784
aS'right'
p57
aa(lp58
I0
aF34.036954879760742
aS'left'
p59
aa(lp60
I0
aF37.490118980407715
aS'right'
p61
aa(lp62
I0
aF38.624706983566284
aS'right'
p63
aa(lp64
I0
aF39.475789070129395
aS'left'
p65
aa(lp66
I0
aF41.960319995880127
aS'right'
p67
aa(lp68
I0
aF43.195585012435913
aS'left'
p69
aa(lp70
I0
aF45.497395038604736
aS'right'
p71
aa(lp72
I0
aF51.46958589553833
aS'left'
p73
aa(lp74
I0
aF54.655720949172974
aS'right'
p75
aa(lp76
I0
aF55.806029081344604
aS'left'
p77
aa(lp78
I0
aF56.807138919830322
aS'right'
p79
aa(lp80
I0
aF57.774487972259521
aS'left'
p81
aa(lp82
I0
aF58.8590989112854
aS'right'
p83
aa(lp84
I0
aF59.692456007003784
aS'left'
p85
aa(lp86
I0
aF60.560736894607544
aS'right'
p87
aa(lp88
I0
aF61.427957057952881
aS'left'
p89
aa(lp90
I0
aF62.345380067825317
aS'right'
p91
aa(lp92
I0
aF64.66427206993103
aS'left'
p93
aa(lp94
I0
aF66.6994788646698
aS'left'
p95
aa(lp96
I0
aF67.350218057632446
aS'right'
p97
aa(lp98
I0
aF70.302305936813354
aS'right'
p99
aa(lp100
I0
aF72.655143022537231
aS'left'
p101
aa(lp102
I0
aF73.805245876312256
aS'right'
p103
aa(lp104
I0
aF76.174159049987793
aS'left'
p105
aa(lp106
I0
aF80.927810907363892
aS'left'
p107
aa(lp108
I0
aF82.112607955932617
aS'right'
p109
aa(lp110
I0
aF83.029917001724243
aS'left'
p111
aa(lp112
I0
aF87.350445032119751
aS'right'
p113
aa(lp114
I0
aF89.151828050613403
aS'left'
p115
aa(lp116
I0
aF91.237756967544556
aS'right'
p117
aa(lp118
I0
aF97.642997026443481
aS'left'
p119
aa(lp120
I0
aF103.38090896606445
aS'right'
p121
aa(lp122
I0
aF106.10063004493713
aS'left'
p123
aa(lp124
I0
aF107.38495707511902
aS'right'
p125
aa(lp126
I0
aF110.33703398704529
aS'left'
p127
aa(lp128
I0
aF111.48862385749817
aS'right'
p129
aa(lp130
I0
aF114.94167399406433
aS'left'
p131
aa(lp132
I0
aF116.02555894851685
aS'right'
p133
aa(lp134
I0
aF116.97646999359131
aS'left'
p135
aa(lp136
I0
aF117.961021900177
aS'right'
p137
aas.