(dp1
S'responses'
p2
(lp3
(lp4
I0
aF2.0818378925323486
aS'right'
p5
aa(lp6
I0
aF7.1034109592437744
aS'left'
p7
aa(lp8
I0
aF13.125361919403076
aS'right'
p9
aa(lp10
I0
aF22.6007399559021
aS'left'
p11
aa(lp12
I0
aF32.742915868759155
aS'right'
p13
aa(lp14
I0
aF42.868041038513184
aS'left'
p15
aa(lp16
I0
aF50.358557939529419
aS'right'
p17
aa(lp18
I0
aF54.378568887710571
aS'left'
p19
aa(lp20
I0
aF59.884059906005859
aS'right'
p21
aa(lp22
I0
aF66.456887006759644
aS'left'
p23
aa(lp24
I0
aF74.664006948471069
aS'right'
p25
aa(lp26
I0
aF82.653714895248413
aS'left'
p27
aa(lp28
I0
aF87.108009099960327
aS'right'
p29
aa(lp30
I0
aF95.232719898223877
aS'left'
p31
aa(lp32
I0
aF105.50808310508728
aS'right'
p33
aa(lp34
I0
aF108.91104793548584
aS'left'
p35
aa(lp36
I0
aF116.00114488601685
aS'right'
p37
aa(lp38
I1
aF1.8315889835357666
aS'right'
p39
aa(lp40
I1
aF6.0013427734375
aS'left'
p41
aa(lp42
I1
aF9.2372438907623291
aS'right'
p43
aa(lp44
I1
aF14.49240779876709
aS'left'
p45
aa(lp46
I1
aF19.480023860931396
aS'right'
p47
aa(lp48
I1
aF23.200592994689941
aS'left'
p49
aa(lp50
I1
aF27.470248937606812
aS'right'
p51
aa(lp52
I1
aF32.858357906341553
aS'left'
p53
aa(lp54
I1
aF36.26216197013855
aS'right'
p55
aa(lp56
I1
aF37.846937894821167
aS'left'
p57
aa(lp58
I1
aF42.233669996261597
aS'right'
p59
aa(lp60
I1
aF50.841662883758545
aS'left'
p61
aa(lp62
I1
aF55.645676851272583
aS'right'
p63
aa(lp64
I1
aF59.148681879043579
aS'left'
p65
aa(lp66
I1
aF63.335858821868896
aS'right'
p67
aa(lp68
I1
aF66.755849838256836
aS'left'
p69
aa(lp70
I1
aF69.157843828201294
aS'right'
p71
aa(lp72
I1
aF73.795692920684814
aS'left'
p73
aa(lp74
I1
aF77.215289831161499
aS'right'
p75
aa(lp76
I1
aF79.300282955169678
aS'left'
p77
aa(lp78
I1
aF81.468702793121338
aS'right'
p79
aa(lp80
I1
aF83.337832927703857
aS'left'
p81
aa(lp82
I1
aF85.372166872024536
aS'right'
p83
aa(lp84
I1
aF86.823582887649536
aS'left'
p85
aa(lp86
I1
aF88.541536808013916
aS'right'
p87
aa(lp88
I1
aF89.926601886749268
aS'left'
p89
aa(lp90
I1
aF91.778324842453003
aS'right'
p91
aa(lp92
I1
aF93.579327821731567
aS'left'
p93
aa(lp94
I1
aF95.665096998214722
aS'right'
p95
aa(lp96
I1
aF97.266349792480469
aS'left'
p97
aa(lp98
I1
aF99.51872181892395
aS'right'
p99
aa(lp100
I1
aF101.30305290222168
aS'left'
p101
aa(lp102
I1
aF104.15539193153381
aS'right'
p103
aa(lp104
I1
aF106.02442097663879
aS'left'
p105
aa(lp106
I1
aF108.00966596603394
aS'right'
p107
aa(lp108
I1
aF109.76100587844849
aS'left'
p109
aa(lp110
I1
aF111.4794647693634
aS'right'
p111
aa(lp112
I1
aF113.31409788131714
aS'left'
p113
aa(lp114
I1
aF115.51623582839966
aS'left'
p115
aa(lp116
I2
aF1.5287659168243408
aS'left'
p117
aa(lp118
I2
aF4.531527042388916
aS'right'
p119
aa(lp120
I2
aF8.3847920894622803
aS'left'
p121
aa(lp122
I2
aF10.737524032592773
aS'right'
p123
aa(lp124
I2
aF14.041038990020752
aS'left'
p125
aa(lp126
I2
aF19.295205116271973
aS'right'
p127
aa(lp128
I2
aF24.098927974700928
aS'left'
p129
aa(lp130
I2
aF26.801239013671875
aS'right'
p131
aa(lp132
I2
aF36.177248001098633
aS'left'
p133
aa(lp134
I2
aF38.4619460105896
aS'right'
p135
aa(lp136
I2
aF42.549439907073975
aS'left'
p137
aa(lp138
I2
aF45.885138034820557
aS'right'
p139
aa(lp140
I2
aF48.271384954452515
aS'left'
p141
aa(lp142
I2
aF54.644022941589355
aS'right'
p143
aa(lp144
I2
aF63.217355966567993
aS'left'
p145
aa(lp146
I2
aF66.204061031341553
aS'right'
p147
aa(lp148
I2
aF75.662630081176758
aS'left'
p149
aa(lp150
I2
aF79.999736070632935
aS'right'
p151
aa(lp152
I2
aF87.489110946655273
aS'left'
p153
aa(lp154
I2
aF91.676192998886108
aS'right'
p155
aa(lp156
I2
aF98.715774059295654
aS'left'
p157
aa(lp158
I2
aF105.82226610183716
aS'right'
p159
aa(lp160
I2
aF113.26200389862061
aS'left'
p161
aas.