(dp1
S'responses'
p2
(lp3
(lp4
I-1
aF1.5339410305023193
aS'right'
p5
aa(lp6
I-1
aF2.4844489097595215
aS'right'
p7
aa(lp8
I-1
aF3.4524250030517578
aS'right'
p9
aa(lp10
I-1
aF4.5027499198913574
aS'right'
p11
aa(lp12
I-1
aF5.77034592628479
aS'right'
p13
aa(lp14
I-1
aF6.9550089836120605
aS'right'
p15
aa(lp16
I-1
aF8.140146017074585
aS'right'
p17
aa(lp18
I-1
aF9.373913049697876
aS'right'
p19
aa(lp20
I-1
aF10.675740003585815
aS'left'
p21
aa(lp22
I-1
aF11.742855072021484
aS'left'
p23
aa(lp24
I-1
aF12.759948015213013
aS'left'
p25
aa(lp26
I-1
aF13.745187997817993
aS'left'
p27
aa(lp28
I-1
aF14.611608982086182
aS'left'
p29
aa(lp30
I-1
aF15.462137937545776
aS'left'
p31
aa(lp32
I-1
aF16.412973880767822
aS'left'
p33
aa(lp34
I-1
aF17.314858913421631
aS'left'
p35
aa(lp36
I-1
aF18.132132053375244
aS'left'
p37
aa(lp38
I-1
aF18.966143846511841
aS'left'
p39
aa(lp40
I-1
aF19.916136980056763
aS'left'
p41
aa(lp42
I-1
aF20.800449848175049
aS'right'
p43
aa(lp44
I-1
aF21.701205968856812
aS'right'
p45
aa(lp46
I-1
aF22.686310052871704
aS'right'
p47
aa(lp48
I-1
aF23.586255073547363
aS'right'
p49
aa(lp50
I-1
aF24.520998001098633
aS'right'
p51
aa(lp52
I-1
aF25.304694890975952
aS'right'
p53
aa(lp54
I-1
aF26.15549898147583
aS'right'
p55
aa(lp56
I-1
aF26.990083932876587
aS'right'
p57
aa(lp58
I-1
aF27.906677007675171
aS'right'
p59
aa(lp60
I-1
aF28.707958936691284
aS'right'
p61
aa(lp62
I-1
aF29.52544093132019
aS'right'
p63
aa(lp64
I0
aF0.74286103248596191
aS'right'
p65
aa(lp66
I0
aF1.6096479892730713
aS'right'
p67
aa(lp68
I0
aF2.543921947479248
aS'right'
p69
aa(lp70
I0
aF3.4446558952331543
aS'right'
p71
aa(lp72
I0
aF4.2953579425811768
aS'right'
p73
aa(lp74
I0
aF5.1131620407104492
aS'right'
p75
aa(lp76
I0
aF5.9139420986175537
aS'right'
p77
aa(lp78
I0
aF6.6813290119171143
aS'right'
p79
aa(lp80
I0
aF7.4318768978118896
aS'right'
p81
aa(lp82
I0
aF8.2493679523468018
aS'right'
p83
aa(lp84
I0
aF9.0825181007385254
aS'right'
p85
aa(lp86
I0
aF9.9163880348205566
aS'right'
p87
aa(lp88
I0
aF10.735215902328491
aS'right'
p89
aa(lp90
I0
aF11.418056964874268
aS'left'
p91
aa(lp92
I0
aF12.169255971908569
aS'left'
p93
aa(lp94
I0
aF12.953207969665527
aS'left'
p95
aa(lp96
I0
aF13.703139066696167
aS'left'
p97
aa(lp98
I0
aF14.387770891189575
aS'left'
p99
aa(lp100
I0
aF15.121292114257812
aS'left'
p101
aa(lp102
I0
aF15.905786991119385
aS'left'
p103
aa(lp104
I0
aF16.706729888916016
aS'left'
p105
aa(lp106
I0
aF17.374119997024536
aS'left'
p107
aa(lp108
I0
aF18.123577117919922
aS'left'
p109
aa(lp110
I0
aF18.874706029891968
aS'left'
p111
aa(lp112
I0
aF19.525202989578247
aS'left'
p113
aa(lp114
I0
aF20.225824117660522
aS'left'
p115
aa(lp116
I0
aF21.127222061157227
aS'right'
p117
aa(lp118
I0
aF21.944700002670288
aS'right'
p119
aa(lp120
I0
aF22.74468207359314
aS'right'
p121
aa(lp122
I0
aF23.46227502822876
aS'right'
p123
aa(lp124
I0
aF24.213144063949585
aS'right'
p125
aa(lp126
I0
aF24.913404941558838
aS'right'
p127
aa(lp128
I0
aF25.664643049240112
aS'right'
p129
aa(lp130
I0
aF26.298579931259155
aS'right'
p131
aa(lp132
I0
aF26.998897075653076
aS'right'
p133
aa(lp134
I0
aF27.766407012939453
aS'right'
p135
aa(lp136
I0
aF28.46605396270752
aS'right'
p137
aa(lp138
I0
aF29.100301027297974
aS'right'
p139
aa(lp140
I0
aF29.834271907806396
aS'right'
p141
aa(lp142
I0
aF30.45232892036438
aS'right'
p143
aa(lp144
I0
aF31.218590021133423
aS'right'
p145
aa(lp146
I0
aF31.869750022888184
aS'right'
p147
aa(lp148
I0
aF32.804205894470215
aS'left'
p149
aa(lp150
I0
aF33.571095943450928
aS'left'
p151
aa(lp152
I0
aF34.3211510181427
aS'left'
p153
aa(lp154
I0
aF35.05539608001709
aS'left'
p155
aa(lp156
I0
aF35.690321922302246
aS'left'
p157
aa(lp158
I0
aF36.290035963058472
aS'left'
p159
aa(lp160
I0
aF37.057271003723145
aS'left'
p161
aa(lp162
I0
aF37.725322961807251
aS'left'
p163
aa(lp164
I0
aF38.525621891021729
aS'left'
p165
aa(lp166
I0
aF39.1928551197052
aS'left'
p167
aa(lp168
I0
aF39.942711114883423
aS'left'
p169
aa(lp170
I0
aF40.778309106826782
aS'left'
p171
aa(lp172
I0
aF41.878084897994995
aS'left'
p173
aa(lp174
I0
aF43.196613073348999
aS'left'
p175
aa(lp176
I0
aF44.11376690864563
aS'left'
p177
aa(lp178
I0
aF44.897749900817871
aS'left'
p179
aa(lp180
I0
aF45.231672048568726
aS'right'
p181
aa(lp182
I0
aF45.832123041152954
aS'right'
p183
aa(lp184
I0
aF46.416129112243652
aS'right'
p185
aa(lp186
I0
aF47.083432912826538
aS'right'
p187
aa(lp188
I0
aF48.017324924468994
aS'right'
p189
aa(lp190
I0
aF48.867496967315674
aS'right'
p191
aa(lp192
I0
aF49.835391044616699
aS'right'
p193
aa(lp194
I0
aF50.686371088027954
aS'right'
p195
aa(lp196
I0
aF51.770704984664917
aS'left'
p197
aa(lp198
I0
aF52.754626035690308
aS'left'
p199
aa(lp200
I0
aF53.538600921630859
aS'left'
p201
aa(lp202
I0
aF54.355567932128906
aS'left'
p203
aa(lp204
I0
aF55.274089097976685
aS'left'
p205
aa(lp206
I0
aF56.090644121170044
aS'left'
p207
aa(lp208
I0
aF57.391823053359985
aS'left'
p209
aa(lp210
I0
aF59.027321100234985
aS'right'
p211
aa(lp212
I0
aF59.777969121932983
aS'right'
p213
aa(lp214
I0
aF60.928508043289185
aS'left'
p215
aa(lp216
I0
aF61.99584698677063
aS'left'
p217
aa(lp218
I0
aF64.898359060287476
aS'left'
p219
aa(lp220
I0
aF65.79960298538208
aS'left'
p221
aa(lp222
I0
aF66.717159986495972
aS'left'
p223
aa(lp224
I0
aF67.718403100967407
aS'left'
p225
aa(lp226
I0
aF68.735976934432983
aS'left'
p227
aa(lp228
I0
aF70.103639125823975
aS'left'
p229
aa(lp230
I0
aF71.154259920120239
aS'right'
p231
aa(lp232
I0
aF72.539263963699341
aS'right'
p233
aa(lp234
I0
aF73.37245512008667
aS'right'
p235
aa(lp236
I0
aF74.340210914611816
aS'right'
p237
aa(lp238
I0
aF75.24111008644104
aS'right'
p239
aa(lp240
I0
aF76.175673961639404
aS'right'
p241
aa(lp242
I0
aF77.326967000961304
aS'right'
p243
aa(lp244
I0
aF78.393718957901001
aS'right'
p245
aa(lp246
I0
aF79.578197002410889
aS'right'
p247
aa(lp248
I0
aF80.195796966552734
aS'right'
p249
aa(lp250
I0
aF81.947350978851318
aS'left'
p251
aa(lp252
I0
aF83.214920043945312
aS'left'
p253
aa(lp254
I0
aF84.498990058898926
aS'left'
p255
aa(lp256
I0
aF85.634403944015503
aS'left'
p257
aa(lp258
I0
aF86.767623901367188
aS'left'
p259
aa(lp260
I0
aF88.102858066558838
aS'left'
p261
aa(lp262
I0
aF89.203702926635742
aS'left'
p263
aa(lp264
I0
aF89.603548049926758
aS'right'
p265
aa(lp266
I0
aF90.504328012466431
aS'right'
p267
aa(lp268
I0
aF91.689358949661255
aS'right'
p269
aa(lp270
I0
aF93.057410955429077
aS'right'
p271
aa(lp272
I0
aF94.190831899642944
aS'left'
p273
aa(lp274
I0
aF95.225586891174316
aS'left'
p275
aa(lp276
I0
aF96.260211944580078
aS'left'
p277
aa(lp278
I0
aF97.044173002243042
aS'left'
p279
aa(lp280
I0
aF97.944359064102173
aS'left'
p281
aa(lp282
I0
aF98.945104122161865
aS'left'
p283
aa(lp284
I0
aF100.0793559551239
aS'left'
p285
aa(lp286
I0
aF101.39809608459473
aS'left'
p287
aa(lp288
I0
aF102.48246002197266
aS'left'
p289
aa(lp290
I0
aF103.54887795448303
aS'left'
p291
aa(lp292
I0
aF104.75091099739075
aS'left'
p293
aa(lp294
I0
aF105.93554401397705
aS'left'
p295
aa(lp296
I0
aF107.28642296791077
aS'left'
p297
aa(lp298
I0
aF108.53730010986328
aS'left'
p299
aa(lp300
I0
aF110.47188091278076
aS'left'
p301
aa(lp302
I0
aF110.78887796401978
aS'right'
p303
aa(lp304
I0
aF111.9402129650116
aS'right'
p305
aa(lp306
I0
aF113.10836601257324
aS'right'
p307
aa(lp308
I0
aF114.1417829990387
aS'right'
p309
aa(lp310
I0
aF115.44293904304504
aS'right'
p311
aa(lp312
I0
aF117.04426908493042
aS'right'
p313
aa(lp314
I0
aF119.29691290855408
aS'right'
p315
aas.