(dp1
S'responses'
p2
(lp3
(lp4
I0
aF1.186298131942749
aS'left'
p5
aa(lp6
I0
aF5.9062390327453613
aS'right'
p7
aa(lp8
I0
aF13.863815069198608
aS'right'
p9
aa(lp10
I0
aF14.547613143920898
aS'left'
p11
aa(lp12
I0
aF20.769095182418823
aS'right'
p13
aa(lp14
I0
aF27.207975149154663
aS'right'
p15
aa(lp16
I0
aF31.078632116317749
aS'left'
p17
aa(lp18
I0
aF36.115909099578857
aS'left'
p19
aa(lp20
I0
aF36.932865142822266
aS'right'
p21
aa(lp22
I0
aF39.135020017623901
aS'left'
p23
aa(lp24
I0
aF41.253517150878906
aS'right'
p25
aa(lp26
I0
aF44.189790010452271
aS'left'
p27
aa(lp28
I0
aF48.643262147903442
aS'right'
p29
aa(lp30
I0
aF50.679225206375122
aS'left'
p31
aa(lp32
I0
aF53.897763013839722
aS'right'
p33
aa(lp34
I0
aF57.26792311668396
aS'right'
p35
aa(lp36
I0
aF60.269760131835938
aS'left'
p37
aa(lp38
I0
aF65.041607141494751
aS'right'
p39
aa(lp40
I0
aF70.27936315536499
aS'right'
p41
aa(lp42
I0
aF74.465607166290283
aS'left'
p43
aa(lp44
I0
aF80.854075193405151
aS'right'
p45
aa(lp46
I0
aF85.241559982299805
aS'left'
p47
aa(lp48
I0
aF88.877938032150269
aS'right'
p49
aa(lp50
I0
aF97.953006029129028
aS'left'
p51
aa(lp52
I0
aF102.63991117477417
aS'right'
p53
aa(lp54
I0
aF106.6430230140686
aS'left'
p55
aa(lp56
I0
aF109.27937316894531
aS'right'
p57
aa(lp58
I0
aF113.06620311737061
aS'left'
p59
aa(lp60
I0
aF116.93605899810791
aS'left'
p61
aa(lp62
I0
aF118.53731513023376
aS'right'
p63
aa(lp64
I1
aF1.8997669219970703
aS'left'
p65
aa(lp66
I1
aF4.5847110748291016
aS'right'
p67
aa(lp68
I1
aF7.6705389022827148
aS'left'
p69
aa(lp70
I1
aF16.478934049606323
aS'right'
p71
aa(lp72
I1
aF19.581794023513794
aS'left'
p73
aa(lp74
I1
aF26.254028081893921
aS'right'
p75
aa(lp76
I1
aF31.958168029785156
aS'left'
p77
aa(lp78
I1
aF39.048681020736694
aS'right'
p79
aa(lp80
I1
aF45.253621101379395
aS'right'
p81
aa(lp82
I1
aF49.240062952041626
aS'left'
p83
aa(lp84
I1
aF52.559633016586304
aS'right'
p85
aa(lp86
I1
aF59.633177042007446
aS'left'
p87
aa(lp88
I1
aF61.06754207611084
aS'right'
p89
aa(lp90
I1
aF64.737292051315308
aS'left'
p91
aa(lp92
I1
aF67.856046915054321
aS'right'
p93
aa(lp94
I1
aF72.477389097213745
aS'left'
p95
aa(lp96
I1
aF77.680994987487793
aS'right'
p97
aa(lp98
I1
aF80.867264032363892
aS'left'
p99
aa(lp100
I1
aF84.904887914657593
aS'right'
p101
aa(lp102
I1
aF88.808348894119263
aS'left'
p103
aa(lp104
I1
aF92.994579076766968
aS'right'
p105
aa(lp106
I1
aF96.097065925598145
aS'left'
p107
aa(lp108
I1
aF99.416857004165649
aS'right'
p109
aa(lp110
I1
aF102.50321888923645
aS'left'
p111
aa(lp112
I1
aF106.5401439666748
aS'right'
p113
aa(lp114
I1
aF112.17854499816895
aS'right'
p115
aa(lp116
I1
aF114.81307792663574
aS'left'
p117
aa(lp118
I2
aF3.095952033996582
aS'left'
p119
aa(lp120
I2
aF7.3162801265716553
aS'right'
p121
aa(lp122
I2
aF11.253252983093262
aS'left'
p123
aa(lp124
I2
aF14.923071146011353
aS'right'
p125
aa(lp126
I2
aF19.027024984359741
aS'left'
p127
aa(lp128
I2
aF23.364230155944824
aS'right'
p129
aa(lp130
I2
aF28.75139307975769
aS'left'
p131
aa(lp132
I2
aF33.623048067092896
aS'right'
p133
aa(lp134
I2
aF37.609850168228149
aS'left'
p135
aa(lp136
I2
aF42.396633148193359
aS'right'
p137
aa(lp138
I2
aF46.983862161636353
aS'left'
p139
aa(lp140
I2
aF50.753905057907104
aS'right'
p141
aa(lp142
I2
aF53.406502962112427
aS'left'
p143
aa(lp144
I2
aF58.210139036178589
aS'right'
p145
aa(lp146
I2
aF64.215985059738159
aS'left'
p147
aa(lp148
I2
aF70.354531049728394
aS'right'
p149
aa(lp150
I2
aF74.87493109703064
aS'left'
p151
aa(lp152
I2
aF77.860761165618896
aS'right'
p153
aa(lp154
I2
aF80.830053091049194
aS'left'
p155
aa(lp156
I2
aF84.249679088592529
aS'right'
p157
aa(lp158
I2
aF88.636882066726685
aS'left'
p159
aa(lp160
I2
aF93.024168968200684
aS'right'
p161
aa(lp162
I2
aF98.178529977798462
aS'left'
p163
aa(lp164
I2
aF104.70105910301208
aS'right'
p165
aa(lp166
I2
aF109.32147097587585
aS'left'
p167
aa(lp168
I2
aF112.57428407669067
aS'right'
p169
aa(lp170
I2
aF115.84400200843811
aS'right'
p171
aas.