(dp1
S'responses'
p2
(lp3
(lp4
I0
aF1.3877248764038086
aS'left'
p5
aa(lp6
I0
aF9.078650951385498
aS'right'
p7
aa(lp8
I0
aF18.018213987350464
aS'left'
p9
aa(lp10
I0
aF26.658782958984375
aS'right'
p11
aa(lp12
I0
aF40.187482833862305
aS'left'
p13
aa(lp14
I0
aF52.647424936294556
aS'right'
p15
aa(lp16
I0
aF66.775940895080566
aS'left'
p17
aa(lp18
I0
aF89.995878934860229
aS'right'
p19
aa(lp20
I0
aF101.8887939453125
aS'left'
p21
aa(lp22
I1
aF0.98804402351379395
aS'left'
p23
aa(lp24
I1
aF11.513265132904053
aS'right'
p25
aa(lp26
I1
aF20.438354015350342
aS'left'
p27
aa(lp28
I1
aF29.945672988891602
aS'right'
p29
aa(lp30
I1
aF38.119702100753784
aS'left'
p31
aa(lp32
I1
aF50.263392925262451
aS'right'
p33
aa(lp34
I1
aF57.285305976867676
aS'left'
p35
aa(lp36
I1
aF70.429861068725586
aS'right'
p37
aa(lp38
I1
aF74.115456104278564
aS'left'
p39
aa(lp40
I1
aF80.704649925231934
aS'right'
p41
aa(lp42
I1
aF86.543455123901367
aS'left'
p43
aa(lp44
I1
aF92.247744083404541
aS'right'
p45
aa(lp46
I1
aF99.070182085037231
aS'left'
p47
aa(lp48
I1
aF105.64201807975769
aS'right'
p49
aa(lp50
I1
aF115.93445706367493
aS'left'
p51
aa(lp52
I2
aF2.9382848739624023
aS'right'
p53
aa(lp54
I2
aF11.845621824264526
aS'left'
p55
aa(lp56
I2
aF17.217449903488159
aS'right'
p57
aa(lp58
I2
aF33.296945810317993
aS'left'
p59
aa(lp60
I2
aF42.605309963226318
aS'right'
p61
aa(lp62
I2
aF63.422034978866577
aS'left'
p63
aa(lp64
I2
aF71.379588842391968
aS'right'
p65
aa(lp66
I2
aF78.568061828613281
aS'right'
p67
aa(lp68
I2
aF104.82326793670654
aS'left'
p69
aas.