(dp1
S'responses'
p2
(lp3
(lp4
I0
aF1.9664890766143799
aS'left'
p5
aa(lp6
I0
aF7.5212709903717041
aS'right'
p7
aa(lp8
I0
aF9.5389730930328369
aS'left'
p9
aa(lp10
I0
aF28.122042179107666
aS'right'
p11
aa(lp12
I0
aF38.813907146453857
aS'left'
p13
aa(lp14
I0
aF40.164858102798462
aS'right'
p15
aa(lp16
I0
aF41.566411018371582
aS'left'
p17
aa(lp18
I0
aF52.124756097793579
aS'right'
p19
aa(lp20
I0
aF66.938167095184326
aS'left'
p21
aa(lp22
I0
aF98.213844060897827
aS'right'
p23
aa(lp24
I1
aF2.8843958377838135
aS'left'
p25
aa(lp26
I1
aF30.023845911026001
aS'right'
p27
aa(lp28
I1
aF84.119868040084839
aS'left'
p29
aa(lp30
I2
aF2.2287180423736572
aS'left'
p31
aa(lp32
I2
aF13.103640079498291
aS'right'
p33
aa(lp34
I2
aF25.71399188041687
aS'left'
p35
aa(lp36
I2
aF34.704998970031738
aS'right'
p37
aa(lp38
I2
aF35.939307928085327
aS'left'
p39
aa(lp40
I2
aF37.758388042449951
aS'right'
p41
aa(lp42
I2
aF39.792836904525757
aS'left'
p43
aa(lp44
I2
aF41.911717891693115
aS'right'
p45
aa(lp46
I2
aF43.780206918716431
aS'left'
p47
aa(lp48
I2
aF45.814506053924561
aS'right'
p49
aa(lp50
I2
aF48.333311080932617
aS'left'
p51
aa(lp52
I2
aF49.818080902099609
aS'right'
p53
aa(lp54
I2
aF52.419997930526733
aS'left'
p55
aa(lp56
I2
aF54.222171068191528
aS'right'
p57
aa(lp58
I2
aF55.506917953491211
aS'left'
p59
aa(lp60
I2
aF56.923913955688477
aS'right'
p61
aa(lp62
I2
aF58.525228977203369
aS'left'
p63
aa(lp64
I2
aF60.127003908157349
aS'right'
p65
aa(lp66
I2
aF62.528508901596069
aS'left'
p67
aa(lp68
I2
aF65.497786998748779
aS'right'
p69
aa(lp70
I2
aF76.791138887405396
aS'left'
p71
aa(lp72
I2
aF81.478323936462402
aS'right'
p73
aa(lp74
I2
aF82.095767974853516
aS'left'
p75
aa(lp76
I2
aF83.513527870178223
aS'right'
p77
aa(lp78
I2
aF92.388056039810181
aS'left'
p79
aa(lp80
I2
aF95.08980393409729
aS'right'
p81
aa(lp82
I2
aF102.62995195388794
aS'left'
p83
aa(lp84
I2
aF109.80233287811279
aS'right'
p85
aa(lp86
I2
aF111.1031219959259
aS'left'
p87
aa(lp88
I2
aF112.10460710525513
aS'left'
p89
aas.