(dp1
S'responses'
p2
(lp3
(lp4
I-1
aF5.4842970371246338
aS'right'
p5
aa(lp6
I-1
aF6.852470874786377
aS'left'
p7
aa(lp8
I-1
aF21.448109865188599
aS'right'
p9
aa(lp10
I0
aF0.86881399154663086
aS'right'
p11
aa(lp12
I0
aF9.6761071681976318
aS'left'
p13
aa(lp14
I0
aF16.616096973419189
aS'right'
p15
aa(lp16
I0
aF17.700301170349121
aS'left'
p17
aa(lp18
I0
aF20.135984182357788
aS'right'
p19
aa(lp20
I0
aF31.428955078125
aS'left'
p21
aa(lp22
I0
aF44.640295028686523
aS'right'
p23
aa(lp24
I0
aF57.569257974624634
aS'left'
p25
aa(lp26
I0
aF68.729219198226929
aS'right'
p27
aa(lp28
I0
aF77.936973094940186
aS'left'
p29
aa(lp30
I0
aF86.827911138534546
aS'right'
p31
aa(lp32
I0
aF97.586996078491211
aS'left'
p33
aa(lp34
I0
aF110.84897708892822
aS'right'
p35
aas.