(dp1
S'responses'
p2
(lp3
(lp4
I0
aF1.6179869174957275
aS'right'
p5
aa(lp6
I0
aF6.5555160045623779
aS'left'
p7
aa(lp8
I0
aF18.649407148361206
aS'right'
p9
aa(lp10
I0
aF38.800275087356567
aS'left'
p11
aa(lp12
I0
aF58.584516048431396
aS'right'
p13
aa(lp14
I0
aF79.402091979980469
aS'left'
p15
aa(lp16
I0
aF94.381181001663208
aS'right'
p17
aa(lp18
I1
aF2.3367588520050049
aS'right'
p19
aa(lp20
I1
aF9.9100918769836426
aS'left'
p21
aa(lp22
I1
aF24.039389848709106
aS'right'
p23
aa(lp24
I1
aF50.211497068405151
aS'left'
p25
aa(lp26
I1
aF63.189208030700684
aS'right'
p27
aa(lp28
I1
aF90.095502853393555
aS'left'
p29
aa(lp30
I1
aF103.24023604393005
aS'right'
p31
aa(lp32
I1
aF104.49123597145081
aS'left'
p33
aa(lp34
I2
aF1.483424186706543
aS'right'
p35
aa(lp36
I2
aF17.180174112319946
aS'left'
p37
aa(lp38
I2
aF32.375686168670654
aS'right'
p39
aa(lp40
I2
aF60.065867185592651
aS'left'
p41
aa(lp42
I2
aF86.055340051651001
aS'right'
p43
aa(lp44
I2
aF99.566908121109009
aS'left'
p45
aa(lp46
I2
aF114.22993803024292
aS'right'
p47
aas.