(dp1
S'responses'
p2
(lp3
(lp4
I-1
aF1.4729340076446533
aS'right'
p5
aa(lp6
I-1
aF8.6131191253662109
aS'left'
p7
aa(lp8
I-1
aF19.172621011734009
aS'right'
p9
aa(lp10
I0
aF0.9786219596862793
aS'right'
p11
aa(lp12
I0
aF12.956125974655151
aS'left'
p13
aa(lp14
I0
aF20.679838895797729
aS'right'
p15
aa(lp16
I0
aF33.85832405090332
aS'left'
p17
aa(lp18
I0
aF44.901654005050659
aS'right'
p19
aa(lp20
I0
aF57.178455114364624
aS'left'
p21
aa(lp22
I0
aF68.655426979064941
aS'right'
p23
aa(lp24
I0
aF78.514910936355591
aS'left'
p25
aa(lp26
I0
aF87.138505935668945
aS'right'
p27
aa(lp28
I0
aF96.613709926605225
aS'right'
p29
aa(lp30
I0
aF98.266033887863159
aS'left'
p31
aa(lp32
I0
aF110.91041898727417
aS'right'
p33
aas.