(dp1
S'responses'
p2
(lp3
(lp4
I0
aF2.2455589771270752
aS'left'
p5
aa(lp6
I0
aF3.9643089771270752
aS'right'
p7
aa(lp8
I0
aF5.6319479942321777
aS'left'
p9
aa(lp10
I0
aF6.9001989364624023
aS'right'
p11
aa(lp12
I0
aF8.6511790752410889
aS'left'
p13
aa(lp14
I0
aF13.605499982833862
aS'right'
p15
aa(lp16
I0
aF14.689790964126587
aS'left'
p17
aa(lp18
I0
aF15.774585962295532
aS'right'
p19
aa(lp20
I0
aF17.442080020904541
aS'left'
p21
aa(lp22
I0
aF19.928205013275146
aS'right'
p23
aa(lp24
I0
aF21.813143968582153
aS'left'
p25
aa(lp26
I0
aF25.082566976547241
aS'right'
p27
aa(lp28
I0
aF26.316681146621704
aS'left'
p29
aa(lp30
I0
aF27.568161010742188
aS'right'
p31
aa(lp32
I0
aF29.819432020187378
aS'left'
p33
aa(lp34
I0
aF33.723441123962402
aS'right'
p35
aa(lp36
I0
aF35.441504001617432
aS'left'
p37
aa(lp38
I0
aF41.413218975067139
aS'right'
p39
aa(lp40
I0
aF42.647058963775635
aS'left'
p41
aa(lp42
I0
aF46.782482147216797
aS'right'
p43
aa(lp44
I0
aF48.183885097503662
aS'left'
p45
aa(lp46
I0
aF50.252021074295044
aS'right'
p47
aa(lp48
I0
aF51.40316104888916
aS'left'
p49
aa(lp50
I0
aF55.490163087844849
aS'right'
p51
aa(lp52
I0
aF56.123929023742676
aS'left'
p53
aa(lp54
I0
aF61.212331056594849
aS'right'
p55
aa(lp56
I0
aF62.363104104995728
aS'left'
p57
aa(lp58
I0
aF69.169646978378296
aS'right'
p59
aa(lp60
I0
aF71.454966068267822
aS'left'
p61
aa(lp62
I0
aF72.655416011810303
aS'right'
p63
aa(lp64
I0
aF74.423105001449585
aS'left'
p65
aa(lp66
I0
aF78.844231128692627
aS'right'
p67
aa(lp68
I0
aF79.711462020874023
aS'left'
p69
aa(lp70
I0
aF81.946875095367432
aS'right'
p71
aa(lp72
I0
aF83.064823150634766
aS'left'
p73
aa(lp74
I0
aF88.670284986495972
aS'right'
p75
aa(lp76
I0
aF90.838137149810791
aS'left'
p77
aa(lp78
I0
aF97.060837984085083
aS'right'
p79
aa(lp80
I0
aF98.711796998977661
aS'left'
p81
aa(lp82
I0
aF100.64664697647095
aS'right'
p83
aa(lp84
I0
aF102.76532912254333
aS'left'
p85
aa(lp86
I0
aF107.33633494377136
aS'right'
p87
aa(lp88
I0
aF111.52309513092041
aS'left'
p89
aa(lp90
I0
aF117.19522500038147
aS'right'
p91
aa(lp92
I1
aF1.1955580711364746
aS'left'
p93
aa(lp94
I1
aF4.2149660587310791
aS'right'
p95
aa(lp96
I1
aF5.1152369976043701
aS'left'
p97
aa(lp98
I1
aF12.205511093139648
aS'right'
p99
aa(lp100
I1
aF13.706702947616577
aS'left'
p101
aa(lp102
I1
aF17.042814016342163
aS'right'
p103
aa(lp104
I1
aF19.544920921325684
aS'left'
p105
aa(lp106
I1
aF20.512947082519531
aS'right'
p107
aa(lp108
I1
aF20.712580919265747
aS'right'
p109
aa(lp110
I1
aF22.547947883605957
aS'left'
p111
aa(lp112
I1
aF24.149400949478149
aS'right'
p113
aa(lp114
I1
aF27.535784006118774
aS'left'
p115
aa(lp116
I1
aF31.638844966888428
aS'right'
p117
aa(lp118
I1
aF33.406804084777832
aS'left'
p119
aa(lp120
I1
aF36.509769916534424
aS'right'
p121
aa(lp122
I1
aF39.295898914337158
aS'left'
p123
aa(lp124
I1
aF40.596873044967651
aS'right'
p125
aa(lp126
I1
aF42.48213005065918
aS'left'
p127
aa(lp128
I1
aF44.050673007965088
aS'right'
p129
aa(lp130
I1
aF49.755666971206665
aS'left'
p131
aa(lp132
I1
aF54.259396076202393
aS'right'
p133
aa(lp134
I1
aF57.678332090377808
aS'left'
p135
aa(lp136
I1
aF61.048604965209961
aS'right'
p137
aa(lp138
I1
aF70.290488004684448
aS'left'
p139
aa(lp140
I2
aF1.0279600620269775
aS'left'
p141
aa(lp142
I2
aF16.242319107055664
aS'right'
p143
aas.