(dp1
S'responses'
p2
(lp3
(lp4
I0
aF2.054703950881958
aS'right'
p5
aa(lp6
I0
aF3.155566930770874
aS'left'
p7
aa(lp8
I0
aF4.2569210529327393
aS'right'
p9
aa(lp10
I0
aF5.1739859580993652
aS'left'
p11
aa(lp12
I0
aF6.3255379199981689
aS'right'
p13
aa(lp14
I0
aF7.5261290073394775
aS'left'
p15
aa(lp16
I0
aF9.0438559055328369
aS'right'
p17
aa(lp18
I0
aF10.528487920761108
aS'left'
p19
aa(lp20
I0
aF11.662780046463013
aS'right'
p21
aa(lp22
I0
aF13.331748008728027
aS'left'
p23
aa(lp24
I0
aF14.815426111221313
aS'right'
p25
aa(lp26
I0
aF17.701014041900635
aS'left'
p27
aa(lp28
I0
aF19.869774103164673
aS'right'
p29
aa(lp30
I0
aF21.988318920135498
aS'left'
p31
aa(lp32
I0
aF24.556873083114624
aS'right'
p33
aa(lp34
I0
aF25.942439079284668
aS'left'
p35
aa(lp36
I0
aF28.943949937820435
aS'right'
p37
aa(lp38
I0
aF30.7120680809021
aS'left'
p39
aa(lp40
I0
aF31.879682064056396
aS'right'
p41
aa(lp42
I0
aF34.782807111740112
aS'left'
p43
aa(lp44
I0
aF36.950504064559937
aS'right'
p45
aa(lp46
I0
aF39.069436073303223
aS'left'
p47
aa(lp48
I0
aF40.870461940765381
aS'right'
p49
aa(lp50
I0
aF42.338999032974243
aS'left'
p51
aa(lp52
I0
aF44.624357938766479
aS'right'
p53
aa(lp54
I0
aF46.375569105148315
aS'left'
p55
aa(lp56
I0
aF48.326793909072876
aS'right'
p57
aa(lp58
I0
aF50.495903968811035
aS'left'
p59
aa(lp60
I0
aF52.597058057785034
aS'right'
p61
aa(lp62
I0
aF54.265260934829712
aS'left'
p63
aa(lp64
I0
aF56.584459066390991
aS'right'
p65
aa(lp66
I0
aF58.285932064056396
aS'left'
p67
aa(lp68
I0
aF61.054084062576294
aS'right'
p69
aa(lp70
I0
aF62.806072950363159
aS'left'
p71
aa(lp72
I0
aF64.45765495300293
aS'right'
p73
aa(lp74
I0
aF66.042453050613403
aS'left'
p75
aa(lp76
I0
aF68.777411937713623
aS'right'
p77
aa(lp78
I0
aF70.595477104187012
aS'left'
p79
aa(lp80
I0
aF72.231170892715454
aS'right'
p81
aa(lp82
I0
aF74.26511812210083
aS'left'
p83
aa(lp84
I0
aF75.700392007827759
aS'right'
p85
aa(lp86
I0
aF77.802221059799194
aS'left'
p87
aa(lp88
I0
aF79.902849912643433
aS'right'
p89
aa(lp90
I0
aF81.988989114761353
aS'left'
p91
aa(lp92
I0
aF84.240194082260132
aS'right'
p93
aa(lp94
I0
aF85.958353042602539
aS'left'
p95
aa(lp96
I0
aF87.926980972290039
aS'right'
p97
aa(lp98
I0
aF90.195231914520264
aS'left'
p99
aa(lp100
I0
aF92.397017955780029
aS'right'
p101
aa(lp102
I0
aF94.249200105667114
aS'left'
p103
aa(lp104
I0
aF95.950758934020996
aS'right'
p105
aa(lp106
I0
aF97.801867008209229
aS'left'
p107
aa(lp108
I0
aF100.83759307861328
aS'right'
p109
aa(lp110
I0
aF102.87287592887878
aS'left'
p111
aa(lp112
I0
aF104.64079594612122
aS'right'
p113
aa(lp114
I0
aF106.4264600276947
aS'left'
p115
aa(lp116
I0
aF108.29447603225708
aS'right'
p117
aa(lp118
I0
aF110.028813123703
aS'left'
p119
aa(lp120
I0
aF112.01340889930725
aS'right'
p121
aa(lp122
I0
aF113.94833612442017
aS'left'
p123
aa(lp124
I0
aF115.96727108955383
aS'right'
p125
aa(lp126
I0
aF117.91846990585327
aS'left'
p127
aa(lp128
I0
aF119.83671593666077
aS'right'
p129
aa(lp130
I1
aF1.1600899696350098
aS'left'
p131
aa(lp132
I1
aF3.8623309135437012
aS'right'
p133
aa(lp134
I1
aF5.446943998336792
aS'left'
p135
aa(lp136
I1
aF7.6329529285430908
aS'right'
p137
aa(lp138
I1
aF9.5167160034179688
aS'left'
p139
aa(lp140
I1
aF11.735728979110718
aS'right'
p141
aa(lp142
I1
aF13.387063980102539
aS'left'
p143
aa(lp144
I1
aF15.555892944335938
aS'right'
p145
aa(lp146
I1
aF17.640506982803345
aS'left'
p147
aa(lp148
I1
aF19.44268798828125
aS'right'
p149
aa(lp150
I1
aF22.544919967651367
aS'left'
p151
aa(lp152
I1
aF28.332868814468384
aS'right'
p153
aa(lp154
I1
aF30.318458795547485
aS'left'
p155
aa(lp156
I1
aF33.420791864395142
aS'right'
p157
aa(lp158
I1
aF40.860737800598145
aS'left'
p159
aa(lp160
I1
aF54.355355978012085
aS'right'
p161
aa(lp162
I1
aF84.464018821716309
aS'left'
p163
aa(lp164
I1
aF96.690740823745728
aS'right'
p165
aa(lp166
I1
aF106.01458287239075
aS'left'
p167
aa(lp168
I2
aF3.3168799877166748
aS'left'
p169
aa(lp170
I2
aF7.5533950328826904
aS'right'
p171
aa(lp172
I2
aF8.8545269966125488
aS'left'
p173
aa(lp174
I2
aF70.723014831542969
aS'right'
p175
aa(lp176
I2
aF79.748000860214233
aS'left'
p177
aa(lp178
I2
aF105.10241484642029
aS'right'
p179
aa(lp180
I2
aF119.78187894821167
aS'left'
p181
aas.