(dp1
S'responses'
p2
(lp3
(lp4
I-1
aF3.4181809425354004
aS'right'
p5
aa(lp6
I-1
aF6.3705258369445801
aS'left'
p7
aa(lp8
I-1
aF9.2239809036254883
aS'right'
p9
aa(lp10
I-1
aF13.877407789230347
aS'left'
p11
aa(lp12
I-1
aF20.867538928985596
aS'right'
p13
aa(lp14
I0
aF1.6433620452880859
aS'right'
p15
aa(lp16
I0
aF6.5315549373626709
aS'left'
p17
aa(lp18
I0
aF10.150825023651123
aS'right'
p19
aa(lp20
I0
aF12.570221900939941
aS'left'
p21
aa(lp22
I0
aF20.810758113861084
aS'right'
p23
aa(lp24
I0
aF30.469244956970215
aS'left'
p25
aa(lp26
I0
aF44.948410987854004
aS'right'
p27
aa(lp28
I0
aF57.909904956817627
aS'left'
p29
aa(lp30
I0
aF69.10294508934021
aS'right'
p31
aa(lp32
I0
aF78.594182968139648
aS'left'
p33
aa(lp34
I0
aF87.001832962036133
aS'right'
p35
aa(lp36
I0
aF95.792334079742432
aS'left'
p37
aa(lp38
I0
aF110.83922505378723
aS'right'
p39
aas.