(dp1
S'responses'
p2
(lp3
(lp4
I-1
aF1.4433190822601318
aS'right'
p5
aa(lp6
I-1
aF23.945355176925659
aS'left'
p7
aa(lp8
I0
aF1.0220088958740234
aS'right'
p9
aa(lp10
I0
aF12.34922194480896
aS'left'
p11
aa(lp12
I0
aF21.356103897094727
aS'right'
p13
aa(lp14
I0
aF33.949899911880493
aS'left'
p15
aa(lp16
I0
aF45.409677982330322
aS'right'
p17
aa(lp18
I0
aF57.97150993347168
aS'left'
p19
aa(lp20
I0
aF69.014319896697998
aS'right'
p21
aa(lp22
I0
aF78.054993867874146
aS'left'
p23
aa(lp24
I0
aF87.012163877487183
aS'right'
p25
aa(lp26
I0
aF98.222014904022217
aS'left'
p27
aa(lp28
I0
aF111.23298501968384
aS'right'
p29
aas.