(dp1
S'responses'
p2
(lp3
(lp4
I0
aF1.4941458702087402
aS'left'
p5
aa(lp6
I0
aF4.6308479309082031
aS'right'
p7
aa(lp8
I0
aF9.3683249950408936
aS'left'
p9
aa(lp10
I0
aF16.390918970108032
aS'right'
p11
aa(lp12
I0
aF23.880879878997803
aS'left'
p13
aa(lp14
I0
aF29.084445953369141
aS'right'
p15
aa(lp16
I0
aF35.8243248462677
aS'left'
p17
aa(lp18
I0
aF53.172446966171265
aS'right'
p19
aa(lp20
I0
aF62.113038778305054
aS'left'
p21
aa(lp22
I0
aF76.359178781509399
aS'right'
p23
aa(lp24
I0
aF79.428705930709839
aS'left'
p25
aa(lp26
I0
aF85.434221982955933
aS'right'
p27
aa(lp28
I0
aF96.476892948150635
aS'left'
p29
aa(lp30
I0
aF108.55294585227966
aS'right'
p31
aa(lp32
I0
aF112.25617289543152
aS'left'
p33
aa(lp34
I0
aF119.51298594474792
aS'right'
p35
aa(lp36
I1
aF1.1556830406188965
aS'left'
p37
aa(lp38
I1
aF7.1777510643005371
aS'right'
p39
aa(lp40
I1
aF12.782143115997314
aS'left'
p41
aa(lp42
I1
aF16.36874794960022
aS'right'
p43
aa(lp44
I1
aF24.859323978424072
aS'left'
p45
aa(lp46
I1
aF30.764707088470459
aS'right'
p47
aa(lp48
I1
aF35.518648147583008
aS'left'
p49
aa(lp50
I1
aF44.025660037994385
aS'right'
p51
aa(lp52
I1
aF52.617386102676392
aS'right'
p53
aa(lp54
I1
aF57.670958995819092
aS'left'
p55
aa(lp56
I1
aF68.747722148895264
aS'right'
p57
aa(lp58
I1
aF75.886873960494995
aS'left'
p59
aa(lp60
I1
aF91.083645105361938
aS'right'
p61
aa(lp62
I1
aF98.490492105484009
aS'left'
p63
aa(lp64
I1
aF107.64790010452271
aS'right'
p65
aa(lp66
I1
aF113.85309505462646
aS'left'
p67
aa(lp68
I2
aF1.4771089553833008
aS'right'
p69
aa(lp70
I2
aF8.4659488201141357
aS'left'
p71
aa(lp72
I2
aF15.022565841674805
aS'right'
p73
aa(lp74
I2
aF27.032212018966675
aS'left'
p75
aa(lp76
I2
aF40.794299840927124
aS'right'
p77
aa(lp78
I2
aF50.10296893119812
aS'left'
p79
aa(lp80
I2
aF55.190030813217163
aS'right'
p81
aa(lp82
I2
aF57.158882856369019
aS'left'
p83
aa(lp84
I2
aF63.764623880386353
aS'right'
p85
aa(lp86
I2
aF72.855159997940063
aS'left'
p87
aa(lp88
I2
aF85.633234977722168
aS'right'
p89
aa(lp90
I2
aF94.123600006103516
aS'left'
p91
aa(lp92
I2
aF101.88056993484497
aS'right'
p93
aa(lp94
I2
aF117.81089782714844
aS'left'
p95
aas.