(dp1
S'responses'
p2
(lp3
(lp4
I0
aF2.5734782218933105
aS'right'
p5
aa(lp6
I0
aF2.7905721664428711
aS'right'
p7
aa(lp8
I0
aF5.8262431621551514
aS'left'
p9
aa(lp10
I0
aF7.5610780715942383
aS'right'
p11
aa(lp12
I0
aF8.9626100063323975
aS'left'
p13
aa(lp14
I0
aF11.597840070724487
aS'left'
p15
aa(lp16
I0
aF12.782539129257202
aS'right'
p17
aa(lp18
I0
aF14.216724157333374
aS'right'
p19
aa(lp20
I0
aF14.38391900062561
aS'right'
p21
aa(lp22
I0
aF18.270493030548096
aS'right'
p23
aa(lp24
I0
aF19.188277006149292
aS'left'
p25
aa(lp26
I0
aF24.159022092819214
aS'right'
p27
aa(lp28
I0
aF24.559667110443115
aS'left'
p29
aa(lp30
I0
aF26.710699081420898
aS'right'
p31
aa(lp32
I0
aF27.961519002914429
aS'right'
p33
aa(lp34
I0
aF29.096912145614624
aS'right'
p35
aa(lp36
I0
aF29.479687213897705
aS'right'
p37
aa(lp38
I0
aF31.915014028549194
aS'left'
p39
aa(lp40
I0
aF34.567687034606934
aS'right'
p41
aa(lp42
I0
aF36.068991184234619
aS'left'
p43
aa(lp44
I0
aF39.871554136276245
aS'right'
p45
aa(lp46
I0
aF44.125928163528442
aS'right'
p47
aa(lp48
I0
aF44.70902419090271
aS'right'
p49
aa(lp50
I0
aF45.126100063323975
aS'right'
p51
aa(lp52
I0
aF47.545493125915527
aS'left'
p53
aa(lp54
I0
aF49.613913059234619
aS'left'
p55
aa(lp56
I0
aF51.465640068054199
aS'right'
p57
aa(lp58
I0
aF51.514987230300903
aS'left'
p59
aa(lp60
I0
aF51.648825168609619
aS'right'
p61
aa(lp62
I0
aF51.648825168609619
aS'left'
p63
aa(lp64
I0
aF51.849100112915039
aS'right'
p65
aa(lp66
I0
aF51.849100112915039
aS'left'
p67
aa(lp68
I0
aF55.285513162612915
aS'left'
p69
aa(lp70
I0
aF57.436719179153442
aS'right'
p71
aa(lp72
I0
aF57.903521060943604
aS'right'
p73
aa(lp74
I0
aF59.138032197952271
aS'right'
p75
aa(lp76
I0
aF60.855853080749512
aS'right'
p77
aa(lp78
I0
aF61.82366418838501
aS'left'
p79
aa(lp80
I0
aF63.559033155441284
aS'right'
p81
aa(lp82
I0
aF65.093021154403687
aS'right'
p83
aa(lp84
I0
aF66.377622127532959
aS'right'
p85
aa(lp86
I0
aF66.828949213027954
aS'right'
p87
aa(lp88
I0
aF72.015529155731201
aS'left'
p89
aa(lp90
I0
aF76.319411039352417
aS'right'
p91
aa(lp92
I0
aF78.638058185577393
aS'right'
p93
aa(lp94
I0
aF81.05656909942627
aS'right'
p95
aa(lp96
I0
aF84.275935173034668
aS'right'
p97
aa(lp98
I0
aF87.428863048553467
aS'left'
p99
aa(lp100
I0
aF89.13101601600647
aS'right'
p101
aa(lp102
I0
aF90.23142409324646
aS'left'
p103
aa(lp104
I0
aF91.949849128723145
aS'right'
p105
aa(lp106
I0
aF96.953900098800659
aS'right'
p107
aa(lp108
I0
aF99.038207054138184
aS'right'
p109
aa(lp110
I0
aF100.92365121841431
aS'right'
p111
aa(lp112
I0
aF102.60905408859253
aS'right'
p113
aa(lp114
I0
aF102.64152717590332
aS'left'
p115
aa(lp116
I0
aF102.82544803619385
aS'left'
p117
aa(lp118
I0
aF103.4594612121582
aS'left'
p119
aa(lp120
I0
aF104.19338011741638
aS'right'
p121
aa(lp122
I0
aF104.54336619377136
aS'right'
p123
aa(lp124
I0
aF105.16007614135742
aS'right'
p125
aa(lp126
I0
aF106.17767810821533
aS'left'
p127
aa(lp128
I0
aF107.29570817947388
aS'left'
p129
aa(lp130
I0
aF110.3646411895752
aS'right'
p131
aa(lp132
I0
aF111.85015606880188
aS'right'
p133
aa(lp134
I0
aF112.03324007987976
aS'right'
p135
aa(lp136
I0
aF113.98438501358032
aS'right'
p137
aa(lp138
I0
aF114.68590903282166
aS'left'
p139
aa(lp140
I0
aF115.28540301322937
aS'right'
p141
aa(lp142
I0
aF115.28540301322937
aS'left'
p143
aa(lp144
I0
aF115.86932015419006
aS'right'
p145
aa(lp146
I0
aF115.90320706367493
aS'left'
p147
aa(lp148
I0
aF119.13865900039673
aS'left'
p149
aa(lp150
I0
aF119.50654006004333
aS'left'
p151
aa(lp152
I1
aF4.3748559951782227
aS'right'
p153
aa(lp154
I1
aF5.8421528339385986
aS'left'
p155
aa(lp156
I1
aF6.0419068336486816
aS'left'
p157
aa(lp158
I1
aF9.3456618785858154
aS'right'
p159
aa(lp160
I1
aF10.26277494430542
aS'right'
p161
aa(lp162
I1
aF10.779558897018433
aS'left'
p163
aa(lp164
I1
aF15.433605909347534
aS'right'
p165
aa(lp166
I1
aF16.484501838684082
aS'right'
p167
aa(lp168
I1
aF19.453612804412842
aS'right'
p169
aa(lp170
I1
aF22.139959812164307
aS'left'
p171
aa(lp172
I1
aF22.389995813369751
aS'left'
p173
aa(lp174
I1
aF22.53957986831665
aS'left'
p175
aa(lp176
I1
aF23.373828887939453
aS'left'
p177
aa(lp178
I1
aF26.676814794540405
aS'left'
p179
aa(lp180
I1
aF26.827439785003662
aS'left'
p181
aa(lp182
I1
aF27.910769939422607
aS'right'
p183
aa(lp184
I1
aF29.161731958389282
aS'right'
p185
aa(lp186
I1
aF29.762250900268555
aS'right'
p187
aa(lp188
I1
aF30.196684837341309
aS'right'
p189
aa(lp190
I1
aF30.32937479019165
aS'right'
p191
aa(lp192
I1
aF31.297378778457642
aS'right'
p193
aa(lp194
I1
aF32.081064939498901
aS'right'
p195
aa(lp196
I1
aF33.799378871917725
aS'right'
p197
aa(lp198
I1
aF34.683717966079712
aS'left'
p199
aa(lp200
I1
aF35.784997940063477
aS'left'
p201
aa(lp202
I1
aF35.818066835403442
aS'right'
p203
aa(lp204
I1
aF36.551265954971313
aS'right'
p205
aa(lp206
I1
aF37.152923822402954
aS'right'
p207
aa(lp208
I1
aF38.053516864776611
aS'left'
p209
aa(lp210
I1
aF38.452933788299561
aS'right'
p211
aa(lp212
I1
aF38.452933788299561
aS'left'
p213
aa(lp214
I1
aF38.770815849304199
aS'right'
p215
aa(lp216
I1
aF39.104636907577515
aS'left'
p217
aa(lp218
I1
aF39.621484994888306
aS'left'
p219
aa(lp220
I1
aF41.088515996932983
aS'left'
p221
aa(lp222
I1
aF44.558539867401123
aS'right'
p223
aa(lp224
I1
aF45.642006874084473
aS'right'
p225
aa(lp226
I1
aF45.708823919296265
aS'left'
p227
aa(lp228
I1
aF46.293485879898071
aS'right'
p229
aa(lp230
I1
aF47.160290956497192
aS'right'
p231
aa(lp232
I1
aF47.160290956497192
aS'left'
p233
aa(lp234
I1
aF48.911762952804565
aS'right'
p235
aa(lp236
I1
aF49.529382944107056
aS'right'
p237
aa(lp238
I1
aF49.529382944107056
aS'left'
p239
aa(lp240
I1
aF50.296947002410889
aS'right'
p241
aa(lp242
I1
aF52.082165002822876
aS'left'
p243
aa(lp244
I1
aF52.681796789169312
aS'right'
p245
aa(lp246
I1
aF53.883325815200806
aS'left'
p247
aa(lp248
I1
aF54.233327865600586
aS'right'
p249
aa(lp250
I1
aF54.516330003738403
aS'left'
p251
aa(lp252
I1
aF59.053692817687988
aS'right'
p253
aa(lp254
I1
aF60.204741954803467
aS'right'
p255
aa(lp256
I1
aF60.655013799667358
aS'right'
p257
aa(lp258
I1
aF65.993620872497559
aS'left'
p259
aa(lp260
I1
aF71.481783866882324
aS'right'
p261
aa(lp262
I1
aF72.832749843597412
aS'right'
p263
aa(lp264
I1
aF75.835073947906494
aS'right'
p265
aa(lp266
I1
aF79.204310894012451
aS'right'
p267
aa(lp268
I1
aF79.204310894012451
aS'left'
p269
aa(lp270
I1
aF80.138451814651489
aS'left'
p271
aa(lp272
I1
aF81.623498916625977
aS'left'
p273
aa(lp274
I1
aF81.673694849014282
aS'right'
p275
aa(lp276
I1
aF81.940051794052124
aS'left'
p277
aa(lp278
I1
aF82.089920997619629
aS'left'
p279
aa(lp280
I1
aF85.626246929168701
aS'right'
p281
aa(lp282
I1
aF88.161688804626465
aS'right'
p283
aa(lp284
I1
aF88.194819927215576
aS'left'
p285
aa(lp286
I1
aF90.480358839035034
aS'right'
p287
aa(lp288
I1
aF90.713751792907715
aS'right'
p289
aa(lp290
I1
aF91.932237863540649
aS'right'
p291
aa(lp292
I1
aF92.715819835662842
aS'right'
p293
aa(lp294
I1
aF92.715819835662842
aS'left'
p295
aa(lp296
I1
aF93.550021886825562
aS'left'
p297
aa(lp298
I1
aF94.084196805953979
aS'right'
p299
aa(lp300
I1
aF97.386597871780396
aS'left'
p301
aa(lp302
I1
aF100.6222038269043
aS'right'
p303
aa(lp304
I1
aF100.6222038269043
aS'left'
p305
aa(lp306
I1
aF101.22347187995911
aS'left'
p307
aa(lp308
I1
aF101.85738587379456
aS'right'
p309
aa(lp310
I1
aF101.87359094619751
aS'left'
p311
aa(lp312
I1
aF102.02426099777222
aS'left'
p313
aa(lp314
I1
aF102.22421383857727
aS'right'
p315
aa(lp316
I1
aF102.72393894195557
aS'right'
p317
aa(lp318
I1
aF103.39178800582886
aS'right'
p319
aa(lp320
I1
aF103.55890989303589
aS'right'
p321
aa(lp322
I1
aF104.40845584869385
aS'right'
p323
aa(lp324
I1
aF104.47541379928589
aS'left'
p325
aa(lp326
I1
aF107.61205387115479
aS'right'
p327
aa(lp328
I1
aF107.64504885673523
aS'left'
p329
aa(lp330
I1
aF108.34541296958923
aS'right'
p331
aa(lp332
I1
aF108.36277794837952
aS'left'
p333
aa(lp334
I1
aF108.59598398208618
aS'right'
p335
aa(lp336
I1
aF108.77894997596741
aS'right'
p337
aa(lp338
I1
aF110.26383399963379
aS'left'
p339
aa(lp340
I1
aF110.91464495658875
aS'left'
p341
aa(lp342
I1
aF112.36642599105835
aS'right'
p343
aa(lp344
I1
aF112.76599097251892
aS'right'
p345
aa(lp346
I1
aF112.9158399105072
aS'right'
p347
aa(lp348
I1
aF113.43297982215881
aS'right'
p349
aa(lp350
I1
aF113.8667209148407
aS'right'
p351
aa(lp352
I1
aF114.2175087928772
aS'right'
p353
aa(lp354
I1
aF114.43457388877869
aS'right'
p355
aa(lp356
I1
aF114.90084481239319
aS'right'
p357
aa(lp358
I1
aF115.26799893379211
aS'right'
p359
aa(lp360
I1
aF117.03609299659729
aS'right'
p361
aa(lp362
I1
aF117.06995987892151
aS'left'
p363
aa(lp364
I1
aF118.83803796768188
aS'left'
p365
aa(lp366
I1
aF119.28811192512512
aS'left'
p367
aa(lp368
I2
aF0.0092060565948486328
aS'right'
p369
aa(lp370
I2
aF0.79388189315795898
aS'left'
p371
aa(lp372
I2
aF0.99402284622192383
aS'left'
p373
aa(lp374
I2
aF1.8616180419921875
aS'right'
p375
aa(lp376
I2
aF3.7138450145721436
aS'right'
p377
aa(lp378
I2
aF3.7632288932800293
aS'left'
p379
aa(lp380
I2
aF4.2966659069061279
aS'right'
p381
aa(lp382
I2
aF5.2148079872131348
aS'right'
p383
aa(lp384
I2
aF7.8169519901275635
aS'left'
p385
aa(lp386
I2
aF8.3176820278167725
aS'left'
p387
aa(lp388
I2
aF9.5514800548553467
aS'right'
p389
aa(lp390
I2
aF10.902277946472168
aS'right'
p391
aa(lp392
I2
aF11.286014080047607
aS'right'
p393
aa(lp394
I2
aF12.220365047454834
aS'right'
p395
aa(lp396
I2
aF12.220365047454834
aS'left'
p397
aa(lp398
I2
aF12.437435865402222
aS'left'
p399
aa(lp400
I2
aF13.020976066589355
aS'right'
p401
aa(lp402
I2
aF13.054622888565063
aS'left'
p403
aa(lp404
I2
aF13.688788890838623
aS'right'
p405
aa(lp406
I2
aF15.65723705291748
aS'left'
p407
aa(lp408
I2
aF18.459086894989014
aS'right'
p409
aa(lp410
I2
aF20.711683988571167
aS'right'
p411
aa(lp412
I2
aF20.777453899383545
aS'left'
p413
aa(lp414
I2
aF20.994261026382446
aS'left'
p415
aa(lp416
I2
aF21.478115081787109
aS'left'
p417
aa(lp418
I2
aF23.180235862731934
aS'right'
p419
aa(lp420
I2
aF23.86357593536377
aS'left'
p421
aa(lp422
I2
aF24.03103494644165
aS'left'
p423
aa(lp424
I2
aF24.364217042922974
aS'right'
p425
aa(lp426
I2
aF25.497899055480957
aS'right'
p427
aa(lp428
I2
aF25.632080078125
aS'right'
p429
aa(lp430
I2
aF26.732421875
aS'right'
p431
aa(lp432
I2
aF26.799044847488403
aS'left'
p433
aa(lp434
I2
aF27.883157014846802
aS'right'
p435
aa(lp436
I2
aF29.017934083938599
aS'right'
p437
aa(lp438
I2
aF29.051054954528809
aS'left'
p439
aa(lp440
I2
aF29.252222061157227
aS'right'
p441
aa(lp442
I2
aF29.651975870132446
aS'right'
p443
aa(lp444
I2
aF29.735753059387207
aS'left'
p445
aa(lp446
I2
aF32.103564023971558
aS'left'
p447
aa(lp448
I2
aF34.505728006362915
aS'right'
p449
aa(lp450
I2
aF34.539134979248047
aS'left'
p451
aa(lp452
I2
aF34.773246049880981
aS'left'
p453
aa(lp454
I2
aF34.939548969268799
aS'left'
p455
aa(lp456
I2
aF35.257256984710693
aS'left'
p457
aa(lp458
I2
aF36.073760986328125
aS'right'
p459
aa(lp460
I2
aF36.073760986328125
aS'left'
p461
aa(lp462
I2
aF36.77489185333252
aS'right'
p463
aa(lp464
I2
aF36.77489185333252
aS'left'
p465
aa(lp466
I2
aF37.459014892578125
aS'right'
p467
aa(lp468
I2
aF37.459014892578125
aS'left'
p469
aa(lp470
I2
aF38.092700004577637
aS'left'
p471
aa(lp472
I2
aF40.460761070251465
aS'right'
p473
aa(lp474
I2
aF40.878248929977417
aS'right'
p475
aa(lp476
I2
aF41.545022010803223
aS'right'
p477
aa(lp478
I2
aF43.313176870346069
aS'right'
p479
aa(lp480
I2
aF43.647162914276123
aS'right'
p481
aa(lp482
I2
aF45.449146032333374
aS'left'
p483
aa(lp484
I2
aF46.283033847808838
aS'left'
p485
aa(lp486
I2
aF46.632588863372803
aS'right'
p487
aa(lp488
I2
aF46.999546051025391
aS'right'
p489
aa(lp490
I2
aF47.649779081344604
aS'right'
p491
aa(lp492
I2
aF48.216876983642578
aS'right'
p493
aa(lp494
I2
aF48.351454019546509
aS'right'
p495
aa(lp496
I2
aF50.069333076477051
aS'right'
p497
aa(lp498
I2
aF51.253444910049438
aS'left'
p499
aa(lp500
I2
aF52.087455987930298
aS'left'
p501
aa(lp502
I2
aF52.671366930007935
aS'left'
p503
aa(lp504
I2
aF54.840575933456421
aS'left'
p505
aa(lp506
I2
aF55.289779901504517
aS'left'
p507
aa(lp508
I2
aF56.874994039535522
aS'right'
p509
aa(lp510
I2
aF56.907865047454834
aS'left'
p511
aa(lp512
I2
aF57.77545690536499
aS'right'
p513
aa(lp514
I2
aF58.293338060379028
aS'right'
p515
aa(lp516
I2
aF58.910168886184692
aS'right'
p517
aa(lp518
I2
aF59.360899925231934
aS'right'
p519
aa(lp520
I2
aF60.027729034423828
aS'right'
p521
aa(lp522
I2
aF61.861886024475098
aS'right'
p523
aa(lp524
I2
aF62.596843957901001
aS'right'
p525
aa(lp526
I2
aF63.063260078430176
aS'right'
p527
aa(lp528
I2
aF63.196928977966309
aS'right'
p529
aa(lp530
I2
aF63.596977949142456
aS'right'
p531
aa(lp532
I2
aF65.099190950393677
aS'right'
p533
aa(lp534
I2
aF65.482887029647827
aS'right'
p535
aa(lp536
I2
aF68.21814489364624
aS'left'
p537
aa(lp538
I2
aF69.152375936508179
aS'right'
p539
aa(lp540
I2
aF70.035996913909912
aS'right'
p541
aa(lp542
I2
aF70.502872943878174
aS'right'
p543
aa(lp544
I2
aF70.720044851303101
aS'right'
p545
aa(lp546
I2
aF70.887426853179932
aS'right'
p547
aa(lp548
I2
aF71.470262050628662
aS'right'
p549
aa(lp550
I2
aF71.620109081268311
aS'right'
p551
aa(lp552
I2
aF71.854158878326416
aS'right'
p553
aa(lp554
I2
aF72.371603012084961
aS'right'
p555
aa(lp556
I2
aF73.388887882232666
aS'right'
p557
aa(lp558
I2
aF73.43943190574646
aS'left'
p559
aa(lp560
I2
aF73.638854026794434
aS'right'
p561
aa(lp562
I2
aF74.172652006149292
aS'left'
p563
aa(lp564
I2
aF75.424059867858887
aS'left'
p565
aa(lp566
I2
aF78.393918991088867
aS'right'
p567
aa(lp568
I2
aF78.510022878646851
aS'right'
p569
aa(lp570
I2
aF79.278003931045532
aS'left'
p571
aa(lp572
I2
aF80.327862977981567
aS'right'
p573
aa(lp574
I2
aF81.429445028305054
aS'right'
p575
aa(lp576
I2
aF82.546838998794556
aS'right'
p577
aa(lp578
I2
aF83.113554954528809
aS'right'
p579
aa(lp580
I2
aF83.246862888336182
aS'right'
p581
aa(lp582
I2
aF86.816845893859863
aS'right'
p583
aa(lp584
I2
aF90.219547033309937
aS'right'
p585
aa(lp586
I2
aF90.253705024719238
aS'left'
p587
aa(lp588
I2
aF90.603699922561646
aS'right'
p589
aa(lp590
I2
aF91.104423999786377
aS'right'
p591
aa(lp592
I2
aF91.153424024581909
aS'left'
p593
aa(lp594
I2
aF91.337472915649414
aS'right'
p595
aa(lp596
I2
aF91.52135705947876
aS'right'
p597
aa(lp598
I2
aF91.92133092880249
aS'right'
p599
aa(lp600
I2
aF93.00572395324707
aS'right'
p601
aa(lp602
I2
aF93.27211594581604
aS'right'
p603
aa(lp604
I2
aF96.241235971450806
aS'left'
p605
aa(lp606
I2
aF99.260711908340454
aS'right'
p607
aa(lp608
I2
aF99.961873054504395
aS'right'
p609
aa(lp610
I2
aF99.994618892669678
aS'left'
p611
aa(lp612
I2
aF101.3287980556488
aS'left'
p613
aa(lp614
I2
aF102.09619808197021
aS'right'
p615
aa(lp616
I2
aF102.91318488121033
aS'right'
p617
aa(lp618
I2
aF103.54743695259094
aS'left'
p619
aa(lp620
I2
aF103.96469807624817
aS'right'
p621
aa(lp622
I2
aF104.28245902061462
aS'right'
p623
aa(lp624
I2
aF104.74942493438721
aS'right'
p625
aa(lp626
I2
aF104.89843606948853
aS'right'
p627
aa(lp628
I2
aF105.29968905448914
aS'right'
p629
aa(lp630
I2
aF105.44926404953003
aS'right'
p631
aa(lp632
I2
aF105.80014491081238
aS'right'
p633
aa(lp634
I2
aF106.71650195121765
aS'right'
p635
aa(lp636
I2
aF108.28474402427673
aS'right'
p637
aa(lp638
I2
aF110.90382599830627
aS'left'
p639
aa(lp640
I2
aF112.37155604362488
aS'left'
p641
aa(lp642
I2
aF113.45668697357178
aS'right'
p643
aa(lp644
I2
aF113.45668697357178
aS'left'
p645
aa(lp646
I2
aF114.94043397903442
aS'right'
p647
aa(lp648
I2
aF114.94043397903442
aS'left'
p649
aa(lp650
I2
aF117.32586288452148
aS'left'
p651
aa(lp652
I2
aF117.92625403404236
aS'right'
p653
aa(lp654
I2
aF118.87762093544006
aS'right'
p655
aas.