(dp1
S'responses'
p2
(lp3
(lp4
I-1
aF1.8773329257965088
aS'left'
p5
aa(lp6
I-1
aF4.1296789646148682
aS'right'
p7
aa(lp8
I-1
aF13.687051057815552
aS'right'
p9
aa(lp10
I-1
aF15.321855068206787
aS'left'
p11
aa(lp12
I-1
aF29.919190883636475
aS'right'
p13
aa(lp14
I0
aF1.0747830867767334
aS'right'
p15
aa(lp16
I0
aF13.285370111465454
aS'left'
p17
aa(lp18
I0
aF21.009260177612305
aS'right'
p19
aa(lp20
I0
aF32.319522142410278
aS'left'
p21
aa(lp22
I0
aF45.347285985946655
aS'left'
p23
aa(lp24
I0
aF53.705260992050171
aS'right'
p25
aa(lp26
I0
aF59.493016004562378
aS'left'
p27
aa(lp28
I0
aF77.092357158660889
aS'right'
p29
aa(lp30
I0
aF86.834535121917725
aS'left'
p31
aa(lp32
I0
aF91.588707208633423
aS'right'
p33
aa(lp34
I0
aF95.87584114074707
aS'left'
p35
aa(lp36
I0
aF99.9967041015625
aS'right'
p37
aa(lp38
I0
aF101.53130221366882
aS'left'
p39
aa(lp40
I0
aF114.07572507858276
aS'left'
p41
aa(lp42
I0
aF117.6953752040863
aS'right'
p43
aas.