(dp1
S'responses'
p2
(lp3
(lp4
I-1
aF0.96169209480285645
aS'right'
p5
aa(lp6
I-1
aF3.9320170879364014
aS'left'
p7
aa(lp8
I-1
aF5.7166569232940674
aS'right'
p9
aa(lp10
I-1
aF7.7677710056304932
aS'left'
p11
aa(lp12
I-1
aF9.0863080024719238
aS'right'
p13
aa(lp14
I-1
aF12.738928079605103
aS'left'
p15
aa(lp16
I-1
aF22.030102968215942
aS'right'
p17
aa(lp18
I-1
aF25.917290925979614
aS'left'
p19
aa(lp20
I-1
aF28.785733938217163
aS'right'
p21
aa(lp22
I0
aF0.82366204261779785
aS'right'
p23
aa(lp24
I0
aF3.9930689334869385
aS'left'
p25
aa(lp26
I0
aF9.3142910003662109
aS'right'
p27
aa(lp28
I0
aF14.085153102874756
aS'left'
p29
aa(lp30
I0
aF19.973278999328613
aS'right'
p31
aa(lp32
I0
aF27.113199949264526
aS'left'
p33
aa(lp34
I0
aF31.41682505607605
aS'right'
p35
aa(lp36
I0
aF35.520088911056519
aS'left'
p37
aa(lp38
I0
aF42.842883110046387
aS'right'
p39
aa(lp40
I0
aF50.165726900100708
aS'left'
p41
aa(lp42
I0
aF55.103368997573853
aS'right'
p43
aa(lp44
I0
aF61.108762979507446
aS'left'
p45
aa(lp46
I0
aF64.978583097457886
aS'right'
p47
aa(lp48
I0
aF74.887409925460815
aS'right'
p49
aa(lp50
I0
aF76.021260976791382
aS'left'
p51
aa(lp52
I0
aF83.478208065032959
aS'right'
p53
aa(lp54
I0
aF90.234272003173828
aS'left'
p55
aa(lp56
I0
aF99.808629989624023
aS'right'
p57
aa(lp58
I0
aF105.14688801765442
aS'left'
p59
aa(lp60
I0
aF109.4663519859314
aS'right'
p61
aa(lp62
I0
aF114.55474591255188
aS'left'
p63
aas.