(dp1
S'responses'
p2
(lp3
(lp4
I-1
aF1.3747251033782959
aS'right'
p5
aa(lp6
I-1
aF3.9439101219177246
aS'right'
p7
aa(lp8
I-1
aF11.03295111656189
aS'left'
p9
aa(lp10
I-1
aF24.761838912963867
aS'right'
p11
aa(lp12
I0
aF1.7923219203948975
aS'right'
p13
aa(lp14
I0
aF7.0801799297332764
aS'right'
p15
aa(lp16
I0
aF12.001255035400391
aS'left'
p17
aa(lp18
I0
aF21.976474046707153
aS'right'
p19
aa(lp20
I0
aF24.812806129455566
aS'right'
p21
aa(lp22
I0
aF33.920459032058716
aS'left'
p23
aa(lp24
I0
aF45.012582063674927
aS'right'
p25
aa(lp26
I0
aF57.840078115463257
aS'left'
p27
aa(lp28
I0
aF68.632982015609741
aS'right'
p29
aa(lp30
I0
aF71.218594074249268
aS'right'
p31
aa(lp32
I0
aF74.454108953475952
aS'left'
p33
aa(lp34
I0
aF76.755701065063477
aS'right'
p35
aa(lp36
I0
aF79.742193937301636
aS'left'
p37
aa(lp38
I0
aF87.248354911804199
aS'right'
p39
aa(lp40
I0
aF88.832937002182007
aS'right'
p41
aa(lp42
I0
aF97.723623991012573
aS'left'
p43
aa(lp44
I0
aF111.43513607978821
aS'right'
p45
aas.