(dp1
S'responses'
p2
(lp3
(lp4
I0
aF2.0532341003417969
aS'right'
p5
aa(lp6
I0
aF24.322524070739746
aS'right'
p7
aa(lp8
I0
aF31.345395088195801
aS'left'
p9
aa(lp10
I0
aF33.947668075561523
aS'left'
p11
aa(lp12
I0
aF118.86956095695496
aS'right'
p13
aa(lp14
I1
aF1.6031451225280762
aS'left'
p15
aa(lp16
I1
aF9.6924901008605957
aS'left'
p17
aa(lp18
I1
aF12.262366056442261
aS'right'
p19
aa(lp20
I1
aF14.013401031494141
aS'left'
p21
aa(lp22
I1
aF15.798501014709473
aS'right'
p23
aa(lp24
I1
aF17.383758068084717
aS'left'
p25
aa(lp26
I1
aF19.851200103759766
aS'right'
p27
aa(lp28
I1
aF21.536817073822021
aS'left'
p29
aa(lp30
I1
aF23.154038190841675
aS'right'
p31
aa(lp32
I1
aF24.672675132751465
aS'left'
p33
aa(lp34
I1
aF27.75803017616272
aS'right'
p35
aa(lp36
I1
aF32.696676969528198
aS'left'
p37
aa(lp38
I1
aF37.399801969528198
aS'left'
p39
aa(lp40
I1
aF39.668652057647705
aS'left'
p41
aa(lp42
I1
aF42.153922080993652
aS'left'
p43
aa(lp44
I1
aF98.552419185638428
aS'right'
p45
aa(lp46
I1
aF102.20538210868835
aS'right'
p47
aa(lp48
I2
aF1.5634219646453857
aS'right'
p49
aa(lp50
I2
aF18.14323616027832
aS'right'
p51
aa(lp52
I2
aF25.466161966323853
aS'right'
p53
aa(lp54
I2
aF30.38713812828064
aS'left'
p55
aa(lp56
I2
aF35.674773931503296
aS'right'
p57
aa(lp58
I2
aF46.802013158798218
aS'left'
p59
aa(lp60
I2
aF54.124410152435303
aS'left'
p61
aa(lp62
I2
aF78.695291042327881
aS'left'
p63
aa(lp64
I2
aF80.963475942611694
aS'right'
p65
aa(lp66
I2
aF86.101557016372681
aS'left'
p67
aa(lp68
I2
aF103.16552495956421
aS'right'
p69
aa(lp70
I2
aF111.50586915016174
aS'left'
p71
aa(lp72
I2
aF118.76194214820862
aS'right'
p73
aas.