(dp1
S'responses'
p2
(lp3
(lp4
I-1
aF17.243420124053955
aS'left'
p5
aa(lp6
I-1
aF23.983498096466064
aS'right'
p7
aa(lp8
I0
aF1.8158009052276611
aS'right'
p9
aa(lp10
I0
aF13.459199905395508
aS'left'
p11
aa(lp12
I0
aF22.400409936904907
aS'right'
p13
aa(lp14
I0
aF31.858641862869263
aS'right'
p15
aa(lp16
I0
aF42.934391975402832
aS'left'
p17
aa(lp18
I0
aF49.223128080368042
aS'right'
p19
aa(lp20
I0
aF65.386686086654663
aS'left'
p21
aa(lp22
I0
aF72.7427818775177
aS'right'
p23
aa(lp24
I0
aF76.262762069702148
aS'right'
p25
aa(lp26
I0
aF79.382798910140991
aS'left'
p27
aa(lp28
I0
aF89.406720876693726
aS'left'
p29
aa(lp30
I0
aF90.291851997375488
aS'right'
p31
aa(lp32
I0
aF97.647165060043335
aS'right'
p33
aa(lp34
I0
aF103.75263404846191
aS'left'
p35
aa(lp36
I0
aF112.86098194122314
aS'left'
p37
aa(lp38
I0
aF113.72790193557739
aS'right'
p39
aa(lp40
I0
aF116.94762301445007
aS'right'
p41
aas.