(dp1
S'responses'
p2
(lp3
(lp4
I-1
aF2.4727458953857422
aS'right'
p5
aa(lp6
I-1
aF6.2267589569091797
aS'left'
p7
aa(lp8
I-1
aF9.112185001373291
aS'right'
p9
aa(lp10
I-1
aF14.4496009349823
aS'left'
p11
aa(lp12
I-1
aF21.522799968719482
aS'right'
p13
aa(lp14
I0
aF1.0804469585418701
aS'right'
p15
aa(lp16
I0
aF14.274501085281372
aS'left'
p17
aa(lp18
I0
aF22.181955099105835
aS'right'
p19
aa(lp20
I0
aF35.108918190002441
aS'left'
p21
aa(lp22
I0
aF44.767982959747314
aS'right'
p23
aa(lp24
I0
aF58.946089029312134
aS'left'
p25
aa(lp26
I0
aF70.555211067199707
aS'right'
p27
aa(lp28
I0
aF79.563773155212402
aS'left'
p29
aa(lp30
I0
aF86.753233194351196
aS'right'
p31
aa(lp32
I0
aF97.978672981262207
aS'left'
p33
aa(lp34
I0
aF110.97280216217041
aS'right'
p35
aas.