(dp1
S'responses'
p2
(lp3
(lp4
I0
aF1.2133820056915283
aS'left'
p5
aa(lp6
I0
aF5.6668300628662109
aS'right'
p7
aa(lp8
I0
aF12.673177003860474
aS'left'
p9
aa(lp10
I0
aF23.249346971511841
aS'right'
p11
aa(lp12
I0
aF34.642500877380371
aS'left'
p13
aa(lp14
I0
aF61.38250207901001
aS'right'
p15
aa(lp16
I0
aF72.391767978668213
aS'left'
p17
aa(lp18
I0
aF80.182888031005859
aS'right'
p19
aa(lp20
I0
aF82.551167011260986
aS'left'
p21
aa(lp22
I0
aF91.759480953216553
aS'right'
p23
aa(lp24
I0
aF95.37895393371582
aS'left'
p25
aa(lp26
I0
aF99.866399049758911
aS'right'
p27
aa(lp28
I0
aF102.81836891174316
aS'left'
p29
aa(lp30
I0
aF111.75958204269409
aS'left'
p31
aa(lp32
I0
aF114.36255598068237
aS'right'
p33
aa(lp34
I1
aF1.5074868202209473
aS'right'
p35
aa(lp36
I1
aF5.9281599521636963
aS'left'
p37
aa(lp38
I1
aF11.699316024780273
aS'right'
p39
aa(lp40
I1
aF17.304491996765137
aS'left'
p41
aa(lp42
I1
aF26.262670993804932
aS'right'
p43
aa(lp44
I1
aF29.848426818847656
aS'left'
p45
aa(lp46
I1
aF35.15371298789978
aS'right'
p47
aa(lp48
I1
aF52.202303886413574
aS'left'
p49
aa(lp50
I1
aF55.387561798095703
aS'right'
p51
aa(lp52
I1
aF68.799954891204834
aS'right'
p53
aa(lp54
I1
aF70.617614984512329
aS'left'
p55
aa(lp56
I1
aF81.394498825073242
aS'right'
p57
aa(lp58
I1
aF89.834937810897827
aS'left'
p59
aa(lp60
I1
aF105.63198590278625
aS'left'
p61
aa(lp62
I1
aF118.04324698448181
aS'right'
p63
aa(lp64
I2
aF5.3067920207977295
aS'left'
p65
aa(lp66
I2
aF13.997354984283447
aS'right'
p67
aa(lp68
I2
aF19.886636018753052
aS'left'
p69
aa(lp70
I2
aF23.722630023956299
aS'right'
p71
aa(lp72
I2
aF36.500708103179932
aS'left'
p73
aa(lp74
I2
aF42.422111034393311
aS'right'
p75
aa(lp76
I2
aF54.416613101959229
aS'right'
p77
aa(lp78
I2
aF56.885222911834717
aS'right'
p79
aa(lp80
I2
aF59.87101411819458
aS'left'
p81
aa(lp82
I2
aF63.907158136367798
aS'right'
p83
aa(lp84
I2
aF68.36194896697998
aS'left'
p85
aa(lp86
I2
aF72.398337125778198
aS'right'
p87
aa(lp88
I2
aF80.188755035400391
aS'right'
p89
aa(lp90
I2
aF88.64601993560791
aS'left'
p91
aa(lp92
I2
aF91.748882055282593
aS'right'
p93
aa(lp94
I2
aF105.1277449131012
aS'right'
p95
aa(lp96
I2
aF112.26727700233459
aS'right'
p97
aa(lp98
I2
aF118.18928098678589
aS'right'
p99
aas.