(dp1
S'responses'
p2
(lp3
(lp4
I0
aF2.6317059993743896
aS'left'
p5
aa(lp6
I0
aF8.503554105758667
aS'right'
p7
aa(lp8
I0
aF13.991764068603516
aS'left'
p9
aa(lp10
I0
aF42.164186000823975
aS'right'
p11
aa(lp12
I0
aF85.334382057189941
aS'left'
p13
aa(lp14
I0
aF112.82481598854065
aS'right'
p15
aa(lp16
I1
aF5.7146110534667969
aS'right'
p17
aa(lp18
I1
aF13.839195013046265
aS'left'
p19
aa(lp20
I1
aF23.346362113952637
aS'right'
p21
aa(lp22
I1
aF29.769143104553223
aS'left'
p23
aa(lp24
I1
aF34.955908060073853
aS'right'
p25
aa(lp26
I1
aF60.193932056427002
aS'left'
p27
aa(lp28
I1
aF87.967286109924316
aS'right'
p29
aa(lp30
I1
aF89.936459064483643
aS'left'
p31
aa(lp32
I1
aF115.82416200637817
aS'right'
p33
aa(lp34
I1
aF117.15903306007385
aS'left'
p35
aa(lp36
I1
aF119.84419107437134
aS'right'
p37
aa(lp38
I2
aF3.056394100189209
aS'left'
p39
aa(lp40
I2
aF8.5775530338287354
aS'right'
p41
aa(lp42
I2
aF13.397569179534912
aS'left'
p43
aa(lp44
I2
aF16.083554029464722
aS'right'
p45
aa(lp46
I2
aF27.693031072616577
aS'left'
p47
aa(lp48
I2
aF32.48130202293396
aS'right'
p49
aa(lp50
I2
aF50.613343954086304
aS'left'
p51
aa(lp52
I2
aF54.483498096466064
aS'right'
p53
aa(lp54
I2
aF83.640257120132446
aS'left'
p55
aa(lp56
I2
aF89.829635143280029
aS'right'
p57
aa(lp58
I2
aF94.049582004547119
aS'left'
p59
aa(lp60
I2
aF117.11872410774231
aS'right'
p61
aas.