(dp1
S'responses'
p2
(lp3
(lp4
I0
aF2.0958540439605713
aS'left'
p5
aa(lp6
I0
aF10.135287046432495
aS'right'
p7
aa(lp8
I0
aF17.759214878082275
aS'left'
p9
aa(lp10
I0
aF24.298078060150146
aS'right'
p11
aa(lp12
I0
aF31.720147848129272
aS'left'
p13
aa(lp14
I0
aF35.624218940734863
aS'right'
p15
aa(lp16
I0
aF42.846349954605103
aS'left'
p17
aa(lp18
I0
aF48.217378854751587
aS'right'
p19
aa(lp20
I0
aF59.010264873504639
aS'left'
p21
aa(lp22
I0
aF61.645922899246216
aS'right'
p23
aa(lp24
I0
aF66.817170858383179
aS'left'
p25
aa(lp26
I0
aF72.821893930435181
aS'right'
p27
aa(lp28
I0
aF80.378942012786865
aS'left'
p29
aa(lp30
I0
aF86.584403991699219
aS'right'
p31
aa(lp32
I0
aF87.768143892288208
aS'left'
p33
aa(lp34
I0
aF92.439367055892944
aS'right'
p35
aa(lp36
I0
aF100.02857804298401
aS'left'
p37
aa(lp38
I0
aF117.2929699420929
aS'right'
p39
aa(lp40
I1
aF1.9260427951812744
aS'right'
p41
aa(lp42
I1
aF5.7959299087524414
aS'left'
p43
aa(lp44
I1
aF11.417207956314087
aS'right'
p45
aa(lp46
I1
aF17.072057008743286
aS'left'
p47
aa(lp48
I1
aF33.352325916290283
aS'right'
p49
aa(lp50
I1
aF44.129181861877441
aS'right'
p51
aa(lp52
I1
aF48.148801803588867
aS'left'
p53
aa(lp54
I1
aF55.806036949157715
aS'right'
p55
aa(lp56
I1
aF62.093835830688477
aS'left'
p57
aa(lp58
I1
aF77.006537914276123
aS'right'
p59
aa(lp60
I1
aF89.250718832015991
aS'left'
p61
aa(lp62
I1
aF91.785727977752686
aS'right'
p63
aa(lp64
I1
aF92.953348875045776
aS'left'
p65
aa(lp66
I1
aF98.859062910079956
aS'right'
p67
aa(lp68
I1
aF106.36482381820679
aS'left'
p69
aa(lp70
I1
aF111.50332689285278
aS'right'
p71
aa(lp72
I2
aF0.8367919921875
aS'right'
p73
aa(lp74
I2
aF7.9431447982788086
aS'left'
p75
aa(lp76
I2
aF13.73104190826416
aS'right'
p77
aa(lp78
I2
aF21.320814847946167
aS'left'
p79
aa(lp80
I2
aF25.924710988998413
aS'right'
p81
aa(lp82
I2
aF30.646260976791382
aS'left'
p83
aa(lp84
I2
aF35.366156816482544
aS'right'
p85
aa(lp86
I2
aF43.889665842056274
aS'left'
p87
aa(lp88
I2
aF54.098656892776489
aS'right'
p89
aa(lp90
I2
aF60.554660797119141
aS'left'
p91
aa(lp92
I2
aF62.473076820373535
aS'right'
p93
aa(lp94
I2
aF64.390887975692749
aS'left'
p95
aa(lp96
I2
aF71.681176900863647
aS'right'
p97
aa(lp98
I2
aF78.252766847610474
aS'right'
p99
aa(lp100
I2
aF80.855649948120117
aS'left'
p101
aa(lp102
I2
aF82.556327819824219
aS'right'
p103
aa(lp104
I2
aF84.95931077003479
aS'left'
p105
aa(lp106
I2
aF97.63574481010437
aS'right'
p107
aa(lp108
I2
aF104.27478098869324
aS'left'
p109
aa(lp110
I2
aF109.81277990341187
aS'right'
p111
aa(lp112
I2
aF119.52212691307068
aS'left'
p113
aas.