(dp1
S'responses'
p2
(lp3
(lp4
I0
aF1.0368621349334717
aS'right'
p5
aa(lp6
I0
aF3.7222471237182617
aS'left'
p7
aa(lp8
I0
aF6.7585761547088623
aS'right'
p9
aa(lp10
I0
aF13.931810140609741
aS'left'
p11
aa(lp12
I0
aF15.415925979614258
aS'right'
p13
aa(lp14
I0
aF17.01721715927124
aS'left'
p15
aa(lp16
I0
aF19.652996063232422
aS'right'
p17
aa(lp18
I0
aF24.240507125854492
aS'left'
p19
aa(lp20
I0
aF28.977916955947876
aS'right'
p21
aa(lp22
I0
aF34.78364109992981
aS'left'
p23
aa(lp24
I0
aF40.621785163879395
aS'right'
p25
aa(lp26
I0
aF43.057140111923218
aS'left'
p27
aa(lp28
I0
aF44.125349044799805
aS'right'
p29
aa(lp30
I0
aF49.512760162353516
aS'left'
p31
aa(lp32
I0
aF56.719171047210693
aS'right'
p33
aa(lp34
I0
aF59.121670961380005
aS'right'
p35
aa(lp36
I0
aF61.84092903137207
aS'left'
p37
aa(lp38
I0
aF67.662706136703491
aS'right'
p39
aa(lp40
I0
aF70.31532096862793
aS'left'
p41
aa(lp42
I0
aF72.767174005508423
aS'right'
p43
aa(lp44
I0
aF79.423410177230835
aS'left'
p45
aa(lp46
I0
aF86.979890108108521
aS'right'
p47
aa(lp48
I0
aF93.385915994644165
aS'left'
p49
aa(lp50
I0
aF94.652822971343994
aS'right'
p51
aa(lp52
I0
aF98.407027959823608
aS'left'
p53
aa(lp54
I0
aF105.62925815582275
aS'right'
p55
aa(lp56
I0
aF114.52034115791321
aS'left'
p57
aa(lp58
I0
aF116.8397741317749
aS'right'
p59
aa(lp60
I0
aF118.37413597106934
aS'left'
p61
aa(lp62
I1
aF1.0241141319274902
aS'right'
p63
aa(lp64
I1
aF3.6769540309906006
aS'left'
p65
aa(lp66
I1
aF7.546699047088623
aS'right'
p67
aa(lp68
I1
aF10.115378141403198
aS'left'
p69
aa(lp70
I1
aF11.767559051513672
aS'right'
p71
aa(lp72
I1
aF15.436702013015747
aS'left'
p73
aa(lp74
I1
aF17.572242975234985
aS'right'
p75
aa(lp76
I1
aF27.681175947189331
aS'left'
p77
aa(lp78
I1
aF33.019601106643677
aS'right'
p79
aa(lp80
I1
aF37.590075016021729
aS'left'
p81
aa(lp82
I1
aF39.658697128295898
aS'right'
p83
aa(lp84
I1
aF46.197582006454468
aS'left'
p85
aa(lp86
I1
aF52.619720935821533
aS'right'
p87
aa(lp88
I1
aF54.371248960494995
aS'left'
p89
aa(lp90
I1
aF55.505953073501587
aS'right'
p91
aa(lp92
I1
aF56.82312798500061
aS'left'
p93
aa(lp94
I1
aF58.008871078491211
aS'right'
p95
aa(lp96
I1
aF62.562158107757568
aS'left'
p97
aa(lp98
I1
aF63.513144969940186
aS'right'
p99
aa(lp100
I1
aF66.265331983566284
aS'left'
p101
aa(lp102
I1
aF69.635730028152466
aS'right'
p103
aa(lp104
I1
aF82.679507970809937
aS'left'
p105
aa(lp106
I1
aF85.815590143203735
aS'right'
p107
aa(lp108
I1
aF89.152194023132324
aS'left'
p109
aa(lp110
I1
aF93.172361135482788
aS'right'
p111
aa(lp112
I1
aF98.793980121612549
aS'left'
p113
aa(lp114
I1
aF102.81513500213623
aS'right'
p115
aa(lp116
I1
aF105.85072493553162
aS'left'
p117
aa(lp118
I1
aF109.65408301353455
aS'right'
p119
aa(lp120
I1
aF115.67566704750061
aS'left'
p121
aa(lp122
I1
aF117.26011109352112
aS'right'
p123
aa(lp124
I1
aF118.56146812438965
aS'left'
p125
aa(lp126
I2
aF1.9142961502075195
aS'right'
p127
aa(lp128
I2
aF4.2334680557250977
aS'left'
p129
aa(lp130
I2
aF7.5694899559020996
aS'right'
p131
aa(lp132
I2
aF12.406949043273926
aS'left'
p133
aa(lp134
I2
aF15.259315967559814
aS'right'
p135
aa(lp136
I2
aF17.511250019073486
aS'left'
p137
aa(lp138
I2
aF20.814353942871094
aS'right'
p139
aa(lp140
I2
aF25.668704986572266
aS'left'
p141
aa(lp142
I2
aF30.239529132843018
aS'right'
p143
aa(lp144
I2
aF38.814526081085205
aS'left'
p145
aa(lp146
I2
aF39.114453077316284
aS'left'
p147
aa(lp148
I2
aF47.037471055984497
aS'right'
p149
aa(lp150
I2
aF52.425464153289795
aS'left'
p151
aa(lp152
I2
aF57.696738004684448
aS'right'
p153
aa(lp154
I2
aF68.106177091598511
aS'left'
p155
aa(lp156
I2
aF71.509732007980347
aS'right'
p157
aa(lp158
I2
aF75.980545043945312
aS'left'
p159
aa(lp160
I2
aF77.698287963867188
aS'right'
p161
aa(lp162
I2
aF83.419979095458984
aS'left'
p163
aa(lp164
I2
aF89.375599145889282
aS'right'
p165
aa(lp166
I2
aF94.095983028411865
aS'left'
p167
aa(lp168
I2
aF100.70181012153625
aS'right'
p169
aa(lp170
I2
aF114.41399002075195
aS'left'
p171
aa(lp172
I2
aF115.73176193237305
aS'right'
p173
aa(lp174
I2
aF116.96625900268555
aS'left'
p175
aa(lp176
I2
aF119.13547897338867
aS'right'
p177
aas.