(dp1
S'responses'
p2
(lp3
(lp4
I-1
aF1.5261878967285156
aS'right'
p5
aa(lp6
I-1
aF18.741564989089966
aS'left'
p7
aa(lp8
I0
aF1.0559830665588379
aS'right'
p9
aa(lp10
I0
aF17.153004884719849
aS'left'
p11
aa(lp12
I0
aF31.249557018280029
aS'right'
p13
aa(lp14
I0
aF37.722050905227661
aS'left'
p15
aa(lp16
I0
aF51.734386920928955
aS'right'
p17
aa(lp18
I0
aF62.527669906616211
aS'left'
p19
aa(lp20
I0
aF73.637346029281616
aS'right'
p21
aa(lp22
I0
aF84.980609893798828
aS'left'
p23
aa(lp24
I0
aF111.08677887916565
aS'right'
p25
aas.