(dp1
S'responses'
p2
(lp3
(lp4
I0
aF2.2511088848114014
aS'left'
p5
aa(lp6
I0
aF5.4537618160247803
aS'right'
p7
aa(lp8
I0
aF7.3719079494476318
aS'left'
p9
aa(lp10
I0
aF8.6897578239440918
aS'right'
p11
aa(lp12
I0
aF13.661105871200562
aS'left'
p13
aa(lp14
I0
aF18.831724882125854
aS'right'
p15
aa(lp16
I0
aF26.104434013366699
aS'left'
p17
aa(lp18
I0
aF38.765776872634888
aS'right'
p19
aa(lp20
I0
aF42.068126916885376
aS'left'
p21
aa(lp22
I0
aF46.538175821304321
aS'right'
p23
aa(lp24
I0
aF50.925335884094238
aS'left'
p25
aa(lp26
I0
aF56.864547967910767
aS'right'
p27
aa(lp28
I0
aF62.70228099822998
aS'left'
p29
aa(lp30
I0
aF68.907572984695435
aS'right'
p31
aa(lp32
I0
aF75.096065044403076
aS'left'
p33
aa(lp34
I0
aF80.650812864303589
aS'right'
p35
aa(lp36
I0
aF86.905891895294189
aS'right'
p37
aa(lp38
I0
aF90.592139959335327
aS'left'
p39
aa(lp40
I0
aF97.948947906494141
aS'right'
p41
aa(lp42
I0
aF103.48665189743042
aS'left'
p43
aa(lp44
I0
aF109.90868496894836
aS'right'
p45
aa(lp46
I0
aF114.47863984107971
aS'left'
p47
aa(lp48
I0
aF117.14865398406982
aS'right'
p49
aa(lp50
I1
aF2.7847690582275391
aS'right'
p51
aa(lp52
I1
aF5.221060037612915
aS'left'
p53
aa(lp54
I1
aF7.1220002174377441
aS'right'
p55
aa(lp56
I1
aF8.2737071514129639
aS'left'
p57
aa(lp58
I1
aF11.242237091064453
aS'right'
p59
aa(lp60
I1
aF12.843839168548584
aS'left'
p61
aa(lp62
I1
aF21.868632078170776
aS'right'
p63
aa(lp64
I1
aF28.857547044754028
aS'left'
p65
aa(lp66
I1
aF33.444775104522705
aS'right'
p67
aa(lp68
I1
aF33.711026191711426
aS'right'
p69
aa(lp70
I1
aF38.448657035827637
aS'left'
p71
aa(lp72
I1
aF54.128802061080933
aS'left'
p73
aa(lp74
I1
aF60.249839067459106
aS'right'
p75
aa(lp76
I1
aF66.539200067520142
aS'left'
p77
aa(lp78
I1
aF74.662614107131958
aS'right'
p79
aa(lp80
I1
aF79.332846164703369
aS'left'
p81
aa(lp82
I1
aF84.603880167007446
aS'right'
p83
aa(lp84
I1
aF94.562745094299316
aS'left'
p85
aa(lp86
I1
aF100.5843620300293
aS'right'
p87
aa(lp88
I1
aF112.09469604492188
aS'left'
p89
aa(lp90
I1
aF119.98401618003845
aS'right'
p91
aa(lp92
I2
aF1.0556089878082275
aS'right'
p93
aa(lp94
I2
aF4.4250240325927734
aS'left'
p95
aa(lp96
I2
aF9.8963720798492432
aS'right'
p97
aa(lp98
I2
aF41.106414079666138
aS'left'
p99
aa(lp100
I2
aF45.292749166488647
aS'right'
p101
aa(lp102
I2
aF56.18528413772583
aS'left'
p103
aa(lp104
I2
aF58.120325088500977
aS'right'
p105
aa(lp106
I2
aF73.300524950027466
aS'left'
p107
aa(lp108
I2
aF78.387974977493286
aS'right'
p109
aa(lp110
I2
aF92.38330602645874
aS'left'
p111
aa(lp112
I2
aF106.34468817710876
aS'right'
p113
aa(lp114
I2
aF117.05325603485107
aS'right'
p115
aas.