(dp1
S'responses'
p2
(lp3
(lp4
I0
aF3.0431478023529053
aS'left'
p5
aa(lp6
I0
aF9.3479959964752197
aS'right'
p7
aa(lp8
I0
aF16.588213920593262
aS'left'
p9
aa(lp10
I0
aF21.324582815170288
aS'right'
p11
aa(lp12
I0
aF25.928571939468384
aS'left'
p13
aa(lp14
I0
aF28.581676959991455
aS'right'
p15
aa(lp16
I0
aF30.216251850128174
aS'left'
p17
aa(lp18
I0
aF32.283724784851074
aS'right'
p19
aa(lp20
I0
aF34.419804811477661
aS'left'
p21
aa(lp22
I0
aF38.056354999542236
aS'right'
p23
aa(lp24
I0
aF39.373389959335327
aS'left'
p25
aa(lp26
I0
aF42.89350700378418
aS'right'
p27
aa(lp28
I0
aF47.530791997909546
aS'left'
p29
aa(lp30
I0
aF48.73167085647583
aS'right'
p31
aa(lp32
I0
aF50.149552822113037
aS'left'
p33
aa(lp34
I0
aF52.151304960250854
aS'right'
p35
aa(lp36
I0
aF54.219323873519897
aS'left'
p37
aa(lp38
I0
aF56.421024799346924
aS'right'
p39
aa(lp40
I0
aF58.506121873855591
aS'left'
p41
aa(lp42
I0
aF65.779482841491699
aS'right'
p43
aa(lp44
I0
aF72.885727882385254
aS'left'
p45
aa(lp46
I0
aF76.872244834899902
aS'right'
p47
aa(lp48
I0
aF81.892730951309204
aS'left'
p49
aa(lp50
I0
aF87.480730772018433
aS'right'
p51
aa(lp52
I0
aF93.036549806594849
aS'left'
p53
aa(lp54
I0
aF95.788729906082153
aS'right'
p55
aa(lp56
I0
aF100.09127879142761
aS'left'
p57
aa(lp58
I0
aF102.29316782951355
aS'right'
p59
aa(lp60
I0
aF105.88016200065613
aS'left'
p61
aa(lp62
I0
aF108.76569795608521
aS'right'
p63
aa(lp64
I0
aF111.25155997276306
aS'left'
p65
aa(lp66
I0
aF113.86965680122375
aS'right'
p67
aa(lp68
I0
aF117.97362494468689
aS'left'
p69
aa(lp70
I1
aF1.0883538722991943
aS'right'
p71
aa(lp72
I1
aF2.9226348400115967
aS'left'
p73
aa(lp74
I1
aF9.2446808815002441
aS'right'
p75
aa(lp76
I1
aF13.615028858184814
aS'left'
p77
aa(lp78
I1
aF21.205380916595459
aS'right'
p79
aa(lp80
I1
aF25.909716844558716
aS'left'
p81
aa(lp82
I1
aF31.330615997314453
aS'right'
p83
aa(lp84
I1
aF33.999032020568848
aS'left'
p85
aa(lp86
I1
aF40.037940979003906
aS'right'
p87
aa(lp88
I1
aF42.089118003845215
aS'left'
p89
aa(lp90
I1
aF47.561023950576782
aS'right'
p91
aa(lp92
I1
aF53.432870864868164
aS'left'
p93
aa(lp94
I1
aF59.604179859161377
aS'left'
p95
aa(lp96
I1
aF60.038260936737061
aS'right'
p97
aa(lp98
I1
aF67.260298013687134
aS'left'
p99
aa(lp100
I1
aF74.383545875549316
aS'right'
p101
aa(lp102
I1
aF79.754178047180176
aS'left'
p103
aa(lp104
I1
aF82.173035860061646
aS'right'
p105
aa(lp106
I1
aF86.79400897026062
aS'left'
p107
aa(lp108
I1
aF88.478603839874268
aS'right'
p109
aa(lp110
I1
aF90.48029088973999
aS'left'
p111
aa(lp112
I1
aF92.715298891067505
aS'right'
p113
aa(lp114
I1
aF95.634284019470215
aS'left'
p115
aa(lp116
I1
aF99.654969930648804
aS'right'
p117
aa(lp118
I1
aF102.37439799308777
aS'left'
p119
aa(lp120
I1
aF106.12756204605103
aS'right'
p121
aa(lp122
I1
aF113.61634492874146
aS'left'
p123
aa(lp124
I1
aF117.97069191932678
aS'right'
p125
aa(lp126
I1
aF119.63894891738892
aS'right'
p127
aa(lp128
I2
aF1.0835881233215332
aS'right'
p129
aa(lp130
I2
aF4.6865260601043701
aS'left'
p131
aa(lp132
I2
aF13.227172136306763
aS'right'
p133
aa(lp134
I2
aF19.915422916412354
aS'left'
p135
aa(lp136
I2
aF22.400867938995361
aS'right'
p137
aa(lp138
I2
aF26.788774013519287
aS'left'
p139
aa(lp140
I2
aF28.890047073364258
aS'right'
p141
aa(lp142
I2
aF36.396172046661377
aS'left'
p143
aa(lp144
I2
aF45.020190954208374
aS'right'
p145
aa(lp146
I2
aF47.439762115478516
aS'left'
p147
aa(lp148
I2
aF53.678024053573608
aS'right'
p149
aa(lp150
I2
aF59.715910911560059
aS'left'
p151
aa(lp152
I2
aF64.569837093353271
aS'right'
p153
aa(lp154
I2
aF66.872620105743408
aS'left'
p155
aa(lp156
I2
aF70.975358963012695
aS'right'
p157
aa(lp158
I2
aF75.830038070678711
aS'left'
p159
aa(lp160
I2
aF79.817055940628052
aS'right'
p161
aa(lp162
I2
aF84.086470127105713
aS'left'
p163
aa(lp164
I2
aF92.061002016067505
aS'right'
p165
aa(lp166
I2
aF97.382177114486694
aS'left'
p167
aa(lp168
I2
aF107.20676302909851
aS'right'
p169
aa(lp170
I2
aF119.88405704498291
aS'left'
p171
aas.