(dp1
S'responses'
p2
(lp3
(lp4
I0
aF1.001417875289917
aS'right'
p5
aa(lp6
I0
aF6.2218890190124512
aS'left'
p7
aa(lp8
I0
aF12.21117091178894
aS'right'
p9
aa(lp10
I0
aF21.518931865692139
aS'left'
p11
aa(lp12
I0
aF31.560771942138672
aS'right'
p13
aa(lp14
I0
aF55.681159019470215
aS'left'
p15
aa(lp16
I0
aF56.566021919250488
aS'right'
p17
aa(lp18
I0
aF57.916281938552856
aS'left'
p19
aa(lp20
I0
aF65.69045090675354
aS'right'
p21
aa(lp22
I0
aF78.401084899902344
aS'left'
p23
aa(lp24
I1
aF1.8322739601135254
aS'left'
p25
aa(lp26
I1
aF3.6849789619445801
aS'right'
p27
aa(lp28
I1
aF6.1032171249389648
aS'left'
p29
aa(lp30
I1
aF27.588040113449097
aS'right'
p31
aa(lp32
I1
aF61.333200931549072
aS'left'
p33
aa(lp34
I1
aF81.518119096755981
aS'right'
p35
aa(lp36
I1
aF88.774359941482544
aS'right'
p37
aa(lp38
I1
aF105.52180194854736
aS'left'
p39
aa(lp40
I1
aF111.92749094963074
aS'right'
p41
aa(lp42
I2
aF1.061276912689209
aS'right'
p43
aa(lp44
I2
aF7.5838348865509033
aS'left'
p45
aa(lp46
I2
aF21.328809976577759
aS'right'
p47
aa(lp48
I2
aF51.721159934997559
aS'left'
p49
aa(lp50
I2
aF66.534896850585938
aS'right'
p51
aa(lp52
I2
aF88.069115877151489
aS'left'
p53
aa(lp54
I2
aF98.729293823242188
aS'right'
p55
aa(lp56
I2
aF114.47538304328918
aS'right'
p57
aas.