(dp1
S'responses'
p2
(lp3
(lp4
I-1
aF3.2812750339508057
aS'left'
p5
aa(lp6
I-1
aF5.4834909439086914
aS'right'
p7
aa(lp8
I-1
aF7.7690739631652832
aS'right'
p9
aa(lp10
I-1
aF9.804149866104126
aS'right'
p11
aa(lp12
I-1
aF11.805789947509766
aS'left'
p13
aa(lp14
I-1
aF13.373664855957031
aS'left'
p15
aa(lp16
I-1
aF15.007688999176025
aS'left'
p17
aa(lp18
I-1
aF16.358959913253784
aS'left'
p19
aa(lp20
I-1
aF18.861840009689331
aS'left'
p21
aa(lp22
I-1
aF21.197638034820557
aS'right'
p23
aa(lp24
I-1
aF23.314812898635864
aS'right'
p25
aa(lp26
I-1
aF25.016144990921021
aS'right'
p27
aa(lp28
I-1
aF26.901803016662598
aS'right'
p29
aa(lp30
I-1
aF28.953058004379272
aS'right'
p31
aa(lp32
I0
aF3.4107530117034912
aS'right'
p33
aa(lp34
I0
aF5.8296940326690674
aS'right'
p35
aa(lp36
I0
aF8.5645930767059326
aS'right'
p37
aa(lp38
I0
aF10.767033100128174
aS'left'
p39
aa(lp40
I0
aF13.585426092147827
aS'left'
p41
aa(lp42
I0
aF20.641441106796265
aS'right'
p43
aa(lp44
I0
aF22.993282079696655
aS'left'
p45
aa(lp46
I0
aF24.044063091278076
aS'right'
p47
aa(lp48
I0
aF25.746423959732056
aS'left'
p49
aa(lp50
I0
aF27.731758117675781
aS'right'
p51
aa(lp52
I0
aF32.735368967056274
aS'left'
p53
aa(lp54
I0
aF38.940737962722778
aS'right'
p55
aa(lp56
I0
aF41.50971508026123
aS'left'
p57
aa(lp58
I0
aF44.12827205657959
aS'right'
p59
aa(lp60
I0
aF47.41397500038147
aS'right'
p61
aa(lp62
I0
aF49.683490991592407
aS'left'
p63
aa(lp64
I0
aF51.450608015060425
aS'right'
p65
aa(lp66
I0
aF53.419457912445068
aS'left'
p67
aa(lp68
I0
aF55.571305990219116
aS'right'
p69
aa(lp70
I0
aF56.955343961715698
aS'left'
p71
aa(lp72
I0
aF58.08970308303833
aS'right'
p73
aa(lp74
I0
aF59.407433032989502
aS'right'
p75
aa(lp76
I0
aF62.093539953231812
aS'left'
p77
aa(lp78
I0
aF63.360894918441772
aS'right'
p79
aa(lp80
I0
aF64.562299966812134
aS'left'
p81
aa(lp82
I0
aF65.696532011032104
aS'right'
p83
aa(lp84
I0
aF67.280882120132446
aS'left'
p85
aa(lp86
I0
aF70.816987991333008
aS'right'
p87
aa(lp88
I0
aF79.141515970230103
aS'right'
p89
aa(lp90
I0
aF84.662137985229492
aS'left'
p91
aa(lp92
I0
aF87.548321008682251
aS'right'
p93
aa(lp94
I0
aF90.266732931137085
aS'left'
p95
aa(lp96
I0
aF92.919876098632812
aS'right'
p97
aa(lp98
I0
aF95.38872504234314
aS'left'
p99
aa(lp100
I0
aF98.924144983291626
aS'left'
p101
aa(lp102
I0
aF107.84864902496338
aS'right'
p103
aa(lp104
I0
aF110.26688098907471
aS'left'
p105
aa(lp106
I0
aF111.46812701225281
aS'right'
p107
aa(lp108
I0
aF114.73811793327332
aS'left'
p109
aas.