(dp1
S'responses'
p2
(lp3
(lp4
I0
aF1.3692681789398193
aS'left'
p5
aa(lp6
I0
aF3.8548359870910645
aS'right'
p7
aa(lp8
I0
aF6.5742521286010742
aS'left'
p9
aa(lp10
I0
aF8.55885910987854
aS'right'
p11
aa(lp12
I0
aF10.894630193710327
aS'left'
p13
aa(lp14
I0
aF14.813839197158813
aS'right'
p15
aa(lp16
I0
aF16.565937995910645
aS'left'
p17
aa(lp18
I0
aF22.003968000411987
aS'left'
p19
aa(lp20
I0
aF25.556449174880981
aS'right'
p21
aa(lp22
I0
aF28.576120138168335
aS'left'
p23
aa(lp24
I0
aF30.878014087677002
aS'left'
p25
aa(lp26
I0
aF35.898159027099609
aS'right'
p27
aa(lp28
I0
aF42.487520217895508
aS'left'
p29
aa(lp30
I0
aF49.126545190811157
aS'right'
p31
aa(lp32
I0
aF54.247795104980469
aS'left'
p33
aa(lp34
I0
aF59.802688121795654
aS'left'
p35
aa(lp36
I0
aF73.347813129425049
aS'left'
p37
aa(lp38
I0
aF79.318356990814209
aS'left'
p39
aa(lp40
I0
aF83.238515138626099
aS'right'
p41
aa(lp42
I0
aF91.295379161834717
aS'left'
p43
aa(lp44
I0
aF98.234665155410767
aS'left'
p45
aa(lp46
I0
aF108.59357213973999
aS'right'
p47
aa(lp48
I0
aF119.08567118644714
aS'right'
p49
aa(lp50
I1
aF1.9001970291137695
aS'right'
p51
aa(lp52
I1
aF5.4198839664459229
aS'left'
p53
aa(lp54
I1
aF8.5227491855621338
aS'right'
p55
aa(lp56
I1
aF21.216852188110352
aS'left'
p57
aa(lp58
I1
aF26.921406984329224
aS'right'
p59
aa(lp60
I1
aF36.296162128448486
aS'left'
p61
aa(lp62
I1
aF42.268064022064209
aS'right'
p63
aa(lp64
I1
aF46.020581007003784
aS'left'
p65
aa(lp66
I1
aF48.222882986068726
aS'right'
p67
aa(lp68
I1
aF55.244826078414917
aS'left'
p69
aa(lp70
I1
aF58.481033086776733
aS'right'
p71
aa(lp72
I1
aF68.256354093551636
aS'left'
p73
aa(lp74
I1
aF82.635661125183105
aS'right'
p75
aa(lp76
I1
aF89.507500171661377
aS'left'
p77
aa(lp78
I1
aF91.058431148529053
aS'right'
p79
aa(lp80
I1
aF92.894047975540161
aS'left'
p81
aa(lp82
I1
aF96.146411180496216
aS'right'
p83
aa(lp84
I1
aF98.464668989181519
aS'left'
p85
aa(lp86
I1
aF100.40026712417603
aS'right'
p87
aa(lp88
I1
aF102.38485598564148
aS'left'
p89
aa(lp90
I1
aF104.25339698791504
aS'right'
p91
aa(lp92
I1
aF106.05496597290039
aS'left'
p93
aa(lp94
I1
aF108.17351698875427
aS'right'
p95
aa(lp96
I1
aF109.95781016349792
aS'left'
p97
aa(lp98
I1
aF115.41208696365356
aS'right'
p99
aa(lp100
I2
aF1.0651168823242188
aS'right'
p101
aa(lp102
I2
aF4.2671830654144287
aS'left'
p103
aa(lp104
I2
aF9.8397679328918457
aS'right'
p105
aa(lp106
I2
aF11.907284021377563
aS'left'
p107
aa(lp108
I2
aF15.493366003036499
aS'right'
p109
aa(lp110
I2
aF20.030936002731323
aS'left'
p111
aa(lp112
I2
aF25.903207063674927
aS'left'
p113
aa(lp114
I2
aF31.607331037521362
aS'right'
p115
aa(lp116
I2
aF37.062263011932373
aS'right'
p117
aa(lp118
I2
aF43.601434946060181
aS'left'
p119
aa(lp120
I2
aF48.405090093612671
aS'left'
p121
aa(lp122
I2
aF55.010171890258789
aS'right'
p123
aa(lp124
I2
aF57.796036958694458
aS'left'
p125
aa(lp126
I2
aF69.423296928405762
aS'right'
p127
aa(lp128
I2
aF72.392621040344238
aS'left'
p129
aa(lp130
I2
aF81.082380056381226
aS'right'
p131
aa(lp132
I2
aF89.056418895721436
aS'left'
p133
aa(lp134
I2
aF91.20815896987915
aS'right'
p135
aa(lp136
I2
aF92.675968885421753
aS'left'
p137
aa(lp138
I2
aF95.862070083618164
aS'right'
p139
aa(lp140
I2
aF103.85172986984253
aS'left'
p141
aa(lp142
I2
aF111.75845503807068
aS'right'
p143
aa(lp144
I2
aF120.04881691932678
aS'left'
p145
aas.