(dp1
S'responses'
p2
(lp3
(lp4
I0
aF1.1262030601501465
aS'right'
p5
aa(lp6
I0
aF4.9452691078186035
aS'left'
p7
aa(lp8
I0
aF6.6966171264648438
aS'right'
p9
aa(lp10
I0
aF8.7492702007293701
aS'left'
p11
aa(lp12
I0
aF10.567016124725342
aS'right'
p13
aa(lp14
I0
aF12.735175132751465
aS'left'
p15
aa(lp16
I0
aF15.705003023147583
aS'right'
p17
aa(lp18
I0
aF20.441943168640137
aS'left'
p19
aa(lp20
I0
aF28.349026203155518
aS'right'
p21
aa(lp22
I0
aF39.508177995681763
aS'left'
p23
aa(lp24
I0
aF46.981409072875977
aS'right'
p25
aa(lp26
I0
aF58.357559204101562
aS'left'
p27
aa(lp28
I0
aF65.964596033096313
aS'right'
p29
aa(lp30
I0
aF72.453824996948242
aS'left'
p31
aa(lp32
I0
aF74.956263065338135
aS'right'
p33
aa(lp34
I0
aF75.956778049468994
aS'left'
p35
aa(lp36
I0
aF77.357326030731201
aS'right'
p37
aa(lp38
I0
aF80.978121042251587
aS'left'
p39
aa(lp40
I0
aF83.813618183135986
aS'right'
p41
aa(lp42
I0
aF91.186499118804932
aS'left'
p43
aa(lp44
I0
aF97.091702222824097
aS'right'
p45
aa(lp46
I0
aF104.78197717666626
aS'right'
p47
aa(lp48
I0
aF106.19889211654663
aS'left'
p49
aa(lp50
I0
aF108.06776213645935
aS'right'
p51
aa(lp52
I0
aF111.25329804420471
aS'left'
p53
aa(lp54
I1
aF2.1138861179351807
aS'right'
p55
aa(lp56
I1
aF6.0167839527130127
aS'left'
p57
aa(lp58
I1
aF15.491903066635132
aS'left'
p59
aa(lp60
I1
aF16.026102066040039
aS'right'
p61
aa(lp62
I1
aF21.964318990707397
aS'left'
p63
aa(lp64
I1
aF31.322082042694092
aS'right'
p65
aa(lp66
I1
aF37.827450037002563
aS'left'
p67
aa(lp68
I1
aF48.987468957901001
aS'right'
p69
aa(lp70
I1
aF55.025599002838135
aS'left'
p71
aa(lp72
I1
aF60.096580028533936
aS'right'
p73
aa(lp74
I1
aF62.549282073974609
aS'left'
p75
aa(lp76
I1
aF67.43628191947937
aS'right'
p77
aa(lp78
I1
aF70.054961919784546
aS'left'
p79
aa(lp80
I1
aF74.376126050949097
aS'right'
p81
aa(lp82
I1
aF82.04877495765686
aS'left'
p83
aa(lp84
I1
aF91.640572071075439
aS'right'
p85
aa(lp86
I1
aF101.63256907463074
aS'right'
p87
aa(lp88
I1
aF103.25017499923706
aS'left'
p89
aa(lp90
I1
aF107.53837895393372
aS'right'
p91
aa(lp92
I1
aF110.64005613327026
aS'left'
p93
aa(lp94
I1
aF112.79238510131836
aS'right'
p95
aa(lp96
I1
aF114.14357209205627
aS'left'
p97
aa(lp98
I1
aF115.96132612228394
aS'right'
p99
aa(lp100
I1
aF119.09761691093445
aS'left'
p101
aa(lp102
I2
aF3.9918627738952637
aS'left'
p103
aa(lp104
I2
aF7.1782689094543457
aS'right'
p105
aa(lp106
I2
aF10.981628894805908
aS'left'
p107
aa(lp108
I2
aF13.367051839828491
aS'right'
p109
aa(lp110
I2
aF17.720567941665649
aS'left'
p111
aa(lp112
I2
aF21.740480899810791
aS'left'
p113
aa(lp114
I2
aF27.761939764022827
aS'right'
p115
aa(lp116
I2
aF34.551754951477051
aS'left'
p117
aa(lp118
I2
aF38.771655797958374
aS'left'
p119
aa(lp120
I2
aF42.775561809539795
aS'right'
p121
aa(lp122
I2
aF47.295431852340698
aS'left'
p123
aa(lp124
I2
aF50.832331895828247
aS'right'
p125
aa(lp126
I2
aF51.783275842666626
aS'left'
p127
aa(lp128
I2
aF56.30321192741394
aS'right'
p129
aa(lp130
I2
aF68.664121866226196
aS'left'
p131
aa(lp132
I2
aF75.186699867248535
aS'right'
p133
aa(lp134
I2
aF80.190936803817749
aS'left'
p135
aa(lp136
I2
aF83.409834861755371
aS'right'
p137
aa(lp138
I2
aF84.310573816299438
aS'left'
p139
aa(lp140
I2
aF89.949448823928833
aS'right'
p141
aa(lp142
I2
aF99.373251914978027
aS'right'
p143
aa(lp144
I2
aF102.50946879386902
aS'left'
p145
aa(lp146
I2
aF108.44865083694458
aS'right'
p147
aa(lp148
I2
aF114.28612685203552
aS'left'
p149
aas.