(dp1
S'responses'
p2
(lp3
(lp4
I-1
aF20.671571016311646
aS'right'
p5
aa(lp6
I-1
aF29.512885093688965
aS'left'
p7
aa(lp8
I0
aF2.1114799976348877
aS'left'
p9
aa(lp10
I0
aF12.754620790481567
aS'right'
p11
aa(lp12
I0
aF21.077783823013306
aS'left'
p13
aa(lp14
I0
aF34.439023971557617
aS'right'
p15
aa(lp16
I0
aF47.383595943450928
aS'left'
p17
aa(lp18
I0
aF64.397298812866211
aS'right'
p19
aa(lp20
I0
aF72.537681818008423
aS'left'
p21
aa(lp22
I0
aF86.249167919158936
aS'right'
p23
aa(lp24
I0
aF111.70425987243652
aS'left'
p25
aas.