(dp1
S'responses'
p2
(lp3
(lp4
I0
aF1.1344060897827148
aS'right'
p5
aa(lp6
I0
aF7.4232311248779297
aS'left'
p7
aa(lp8
I0
aF13.411558151245117
aS'right'
p9
aa(lp10
I0
aF14.829750061035156
aS'left'
p11
aa(lp12
I0
aF18.115746021270752
aS'right'
p13
aa(lp14
I0
aF22.136549949645996
aS'left'
p15
aa(lp16
I0
aF32.729043960571289
aS'left'
p17
aa(lp18
I0
aF36.082306146621704
aS'right'
p19
aa(lp20
I0
aF48.77642297744751
aS'left'
p21
aa(lp22
I0
aF57.567383050918579
aS'left'
p23
aa(lp24
I0
aF70.545459032058716
aS'right'
p25
aa(lp26
I0
aF76.134834051132202
aS'left'
p27
aa(lp28
I0
aF91.397518157958984
aS'left'
p29
aa(lp30
I0
aF105.17742896080017
aS'left'
p31
aa(lp32
I0
aF116.6207799911499
aS'left'
p33
aa(lp34
I1
aF1.2804179191589355
aS'left'
p35
aa(lp36
I1
aF4.4172399044036865
aS'left'
p37
aa(lp38
I1
aF13.158161878585815
aS'left'
p39
aa(lp40
I1
aF19.49660587310791
aS'right'
p41
aa(lp42
I1
aF28.288002014160156
aS'right'
p43
aa(lp44
I1
aF34.409971952438354
aS'right'
p45
aa(lp46
I1
aF38.931262969970703
aS'left'
p47
aa(lp48
I1
aF45.403435945510864
aS'left'
p49
aa(lp50
I1
aF55.529549837112427
aS'right'
p51
aa(lp52
I1
aF57.881170988082886
aS'left'
p53
aa(lp54
I1
aF64.404148817062378
aS'right'
p55
aa(lp56
I1
aF69.992357969284058
aS'left'
p57
aa(lp58
I1
aF80.335180997848511
aS'left'
p59
aa(lp60
I1
aF88.141641855239868
aS'left'
p61
aa(lp62
I1
aF90.577451944351196
aS'right'
p63
aa(lp64
I1
aF95.03137993812561
aS'left'
p65
aa(lp66
I1
aF99.301631927490234
aS'right'
p67
aa(lp68
I1
aF106.07484602928162
aS'left'
p69
aa(lp70
I1
aF110.04418802261353
aS'right'
p71
aa(lp72
I1
aF118.26873302459717
aS'left'
p73
aa(lp74
I2
aF1.6627979278564453
aS'left'
p75
aa(lp76
I2
aF7.9014520645141602
aS'right'
p77
aa(lp78
I2
aF14.858303070068359
aS'left'
p79
aa(lp80
I2
aF22.14840292930603
aS'left'
p81
aa(lp82
I2
aF27.002830982208252
aS'right'
p83
aa(lp84
I2
aF35.843211889266968
aS'left'
p85
aa(lp86
I2
aF37.895190954208374
aS'right'
p87
aa(lp88
I2
aF40.56423807144165
aS'right'
p89
aa(lp90
I2
aF47.62031102180481
aS'left'
p91
aa(lp92
I2
aF48.855031967163086
aS'right'
p93
aa(lp94
I2
aF64.619889974594116
aS'left'
p95
aa(lp96
I2
aF69.824434995651245
aS'right'
p97
aa(lp98
I2
aF76.346663951873779
aS'left'
p99
aa(lp100
I2
aF81.667894840240479
aS'right'
p101
aa(lp102
I2
aF86.405623912811279
aS'right'
p103
aa(lp104
I2
aF91.026625871658325
aS'left'
p105
aa(lp106
I2
aF94.696123838424683
aS'right'
p107
aa(lp108
I2
aF98.817303895950317
aS'right'
p109
aa(lp110
I2
aF117.61704897880554
aS'right'
p111
aas.