(dp1
S'responses'
p2
(lp3
(lp4
I-1
aF2.0567591190338135
aS'right'
p5
aa(lp6
I-1
aF4.8266391754150391
aS'left'
p7
aa(lp8
I-1
aF11.132595062255859
aS'right'
p9
aa(lp10
I-1
aF16.387086153030396
aS'left'
p11
aa(lp12
I-1
aF25.794685125350952
aS'right'
p13
aa(lp14
I0
aF1.0158481597900391
aS'right'
p15
aa(lp16
I0
aF12.359086036682129
aS'left'
p17
aa(lp18
I0
aF20.667520046234131
aS'right'
p19
aa(lp20
I0
aF34.930155038833618
aS'left'
p21
aa(lp22
I0
aF44.438108205795288
aS'right'
p23
aa(lp24
I0
aF53.963533163070679
aS'left'
p25
aa(lp26
I0
aF56.348993062973022
aS'right'
p27
aa(lp28
I0
aF66.056863069534302
aS'left'
p29
aa(lp30
I0
aF75.765567064285278
aS'right'
p31
aa(lp32
I0
aF78.28455114364624
aS'left'
p33
aa(lp34
I0
aF87.926263093948364
aS'right'
p35
aa(lp36
I0
aF97.785297155380249
aS'left'
p37
aa(lp38
I0
aF104.24133014678955
aS'right'
p39
aa(lp40
I0
aF105.80929207801819
aS'left'
p41
aa(lp42
I0
aF111.88131213188171
aS'right'
p43
aa(lp44
I0
aF119.07085299491882
aS'left'
p45
aas.