(dp1
S'responses'
p2
(lp3
(lp4
I0
aF2.0356340408325195
aS'left'
p5
aa(lp6
I0
aF4.087738037109375
aS'right'
p7
aa(lp8
I0
aF5.0221068859100342
aS'left'
p9
aa(lp10
I0
aF5.8724648952484131
aS'right'
p11
aa(lp12
I0
aF6.6566510200500488
aS'left'
p13
aa(lp14
I0
aF7.5411748886108398
aS'right'
p15
aa(lp16
I0
aF8.357975959777832
aS'left'
p17
aa(lp18
I0
aF9.2252888679504395
aS'right'
p19
aa(lp20
I0
aF10.409563064575195
aS'left'
p21
aa(lp22
I0
aF11.728085041046143
aS'right'
p23
aa(lp24
I0
aF15.214070081710815
aS'left'
p25
aa(lp26
I0
aF17.782937049865723
aS'right'
p27
aa(lp28
I0
aF18.716383934020996
aS'left'
p29
aa(lp30
I0
aF19.650551080703735
aS'right'
p31
aa(lp32
I0
aF22.953650951385498
aS'left'
p33
aa(lp34
I0
aF24.220869064331055
aS'right'
p35
aa(lp36
I0
aF27.991328001022339
aS'left'
p37
aa(lp38
I0
aF31.210527896881104
aS'left'
p39
aa(lp40
I0
aF33.645761013031006
aS'right'
p41
aa(lp42
I0
aF36.782022953033447
aS'right'
p43
aa(lp44
I0
aF38.516331911087036
aS'left'
p45
aa(lp46
I0
aF40.618577003479004
aS'right'
p47
aa(lp48
I0
aF45.638978958129883
aS'right'
p49
aa(lp50
I0
aF50.293806076049805
aS'left'
p51
aa(lp52
I0
aF52.99528694152832
aS'right'
p53
aa(lp54
I0
aF62.470850944519043
aS'right'
p55
aa(lp56
I0
aF64.238332033157349
aS'left'
p57
aa(lp58
I0
aF65.606818914413452
aS'right'
p59
aa(lp60
I0
aF69.059406042098999
aS'right'
p61
aa(lp62
I0
aF70.910815000534058
aS'left'
p63
aa(lp64
I0
aF73.579560041427612
aS'left'
p65
aa(lp66
I0
aF75.948087930679321
aS'left'
p67
aa(lp68
I0
aF77.666275024414062
aS'left'
p69
aa(lp70
I0
aF78.5502610206604
aS'right'
p71
aa(lp72
I0
aF81.370018005371094
aS'right'
p73
aa(lp74
I0
aF86.741621017456055
aS'left'
p75
aa(lp76
I0
aF91.544977903366089
aS'right'
p77
aa(lp78
I0
aF97.116018056869507
aS'right'
p79
aa(lp80
I0
aF97.984068870544434
aS'left'
p81
aa(lp82
I0
aF100.30253601074219
aS'right'
p83
aa(lp84
I0
aF102.77158689498901
aS'left'
p85
aa(lp86
I0
aF104.1728720664978
aS'left'
p87
aa(lp88
I0
aF105.05689096450806
aS'right'
p89
aa(lp90
I0
aF106.54128694534302
aS'right'
p91
aa(lp92
I0
aF107.97549700737
aS'right'
p93
aa(lp94
I0
aF114.38135695457458
aS'right'
p95
aa(lp96
I0
aF115.96534299850464
aS'left'
p97
aa(lp98
I0
aF118.48492908477783
aS'left'
p99
aa(lp100
I0
aF119.90203809738159
aS'right'
p101
aa(lp102
I1
aF1.837134838104248
aS'left'
p103
aa(lp104
I1
aF6.6584179401397705
aS'right'
p105
aa(lp106
I1
aF8.0426070690155029
aS'left'
p107
aa(lp108
I1
aF9.5110988616943359
aS'right'
p109
aa(lp110
I1
aF10.911309957504272
aS'left'
p111
aa(lp112
I1
aF12.395705938339233
aS'left'
p113
aa(lp114
I1
aF13.197039842605591
aS'right'
p115
aa(lp116
I1
aF14.331582069396973
aS'left'
p117
aa(lp118
I1
aF15.231775045394897
aS'right'
p119
aa(lp120
I1
aF16.149988889694214
aS'left'
p121
aa(lp122
I1
aF17.316709041595459
aS'right'
p123
aa(lp124
I1
aF19.23587703704834
aS'left'
p125
aa(lp126
I1
aF21.987304925918579
aS'right'
p127
aa(lp128
I1
aF23.972969055175781
aS'left'
p129
aa(lp130
I1
aF30.99560284614563
aS'left'
p131
aa(lp132
I1
aF33.097272872924805
aS'left'
p133
aa(lp134
I1
aF36.967036008834839
aS'right'
p135
aa(lp136
I1
aF40.103603839874268
aS'right'
p137
aa(lp138
I1
aF46.258432865142822
aS'right'
p139
aa(lp140
I1
aF53.364464044570923
aS'left'
p141
aa(lp142
I1
aF55.432417869567871
aS'right'
p143
aa(lp144
I1
aF56.700150012969971
aS'left'
p145
aa(lp146
I1
aF57.634443044662476
aS'right'
p147
aa(lp148
I1
aF59.535946846008301
aS'left'
p149
aa(lp150
I1
aF61.187586069107056
aS'right'
p151
aa(lp152
I1
aF63.239117860794067
aS'right'
p153
aa(lp154
I1
aF64.823642015457153
aS'right'
p155
aa(lp156
I1
aF67.058905839920044
aS'left'
p157
aa(lp158
I1
aF69.71204400062561
aS'right'
p159
aa(lp160
I1
aF70.795444011688232
aS'left'
p161
aa(lp162
I1
aF71.829742908477783
aS'right'
p163
aa(lp164
I1
aF72.66364598274231
aS'left'
p165
aa(lp166
I1
aF74.798898935317993
aS'left'
p167
aa(lp168
I1
aF75.699771881103516
aS'right'
p169
aa(lp170
I1
aF77.751733064651489
aS'right'
p171
aa(lp172
I1
aF79.169350862503052
aS'left'
p173
aa(lp174
I1
aF80.136863946914673
aS'right'
p175
aa(lp176
I1
aF80.954169988632202
aS'left'
p177
aa(lp178
I1
aF81.988591909408569
aS'right'
p179
aa(lp180
I1
aF83.072623014450073
aS'left'
p181
aa(lp182
I1
aF85.240954875946045
aS'right'
p183
aa(lp184
I1
aF88.710552930831909
aS'right'
p185
aa(lp186
I1
aF94.24868106842041
aS'left'
p187
aa(lp188
I1
aF98.102094888687134
aS'right'
p189
aa(lp190
I1
aF100.33795285224915
aS'left'
p191
aa(lp192
I1
aF102.3219530582428
aS'right'
p193
aa(lp194
I1
aF103.94070196151733
aS'left'
p195
aa(lp196
I1
aF106.75942707061768
aS'right'
p197
aa(lp198
I1
aF108.82806897163391
aS'left'
p199
aa(lp200
I1
aF115.91664385795593
aS'right'
p201
aa(lp202
I2
aF1.3453240394592285
aS'right'
p203
aa(lp204
I2
aF4.3975110054016113
aS'left'
p205
aa(lp206
I2
aF6.3158340454101562
aS'right'
p207
aa(lp208
I2
aF8.7180500030517578
aS'left'
p209
aa(lp210
I2
aF9.9018850326538086
aS'right'
p211
aa(lp212
I2
aF11.003767967224121
aS'left'
p213
aa(lp214
I2
aF12.287373065948486
aS'right'
p215
aa(lp216
I2
aF14.906539916992188
aS'left'
p217
aa(lp218
I2
aF16.207191944122314
aS'right'
p219
aa(lp220
I2
aF19.527010917663574
aS'right'
p221
aa(lp222
I2
aF21.245796918869019
aS'left'
p223
aa(lp224
I2
aF22.146290063858032
aS'right'
p225
aa(lp226
I2
aF23.446680068969727
aS'right'
p227
aa(lp228
I2
aF24.330715894699097
aS'left'
p229
aa(lp230
I2
aF25.965475082397461
aS'right'
p231
aa(lp232
I2
aF27.266937017440796
aS'left'
p233
aa(lp234
I2
aF28.651334047317505
aS'right'
p235
aa(lp236
I2
aF29.936140060424805
aS'left'
p237
aa(lp238
I2
aF31.404422044754028
aS'right'
p239
aa(lp240
I2
aF32.171539068222046
aS'left'
p241
aa(lp242
I2
aF35.790601968765259
aS'left'
p243
aa(lp244
I2
aF41.445682048797607
aS'right'
p245
aa(lp246
I2
aF56.558842897415161
aS'left'
p247
aa(lp248
I2
aF59.444293022155762
aS'right'
p249
aa(lp250
I2
aF61.012505054473877
aS'left'
p251
aa(lp252
I2
aF62.563538074493408
aS'right'
p253
aa(lp254
I2
aF63.648079872131348
aS'left'
p255
aa(lp256
I2
aF64.932472944259644
aS'right'
p257
aa(lp258
I2
aF67.200783014297485
aS'left'
p259
aa(lp260
I2
aF68.918550968170166
aS'right'
p261
aa(lp262
I2
aF71.203855037689209
aS'left'
p263
aa(lp264
I2
aF77.309349060058594
aS'right'
p265
aa(lp266
I2
aF80.695111989974976
aS'left'
p267
aa(lp268
I2
aF86.067000865936279
aS'right'
p269
aa(lp270
I2
aF88.201341867446899
aS'left'
p271
aa(lp272
I2
aF89.570044994354248
aS'right'
p273
aa(lp274
I2
aF91.321548938751221
aS'left'
p275
aa(lp276
I2
aF92.555057048797607
aS'right'
p277
aa(lp278
I2
aF93.38990306854248
aS'right'
p279
aa(lp280
I2
aF96.058098077774048
aS'left'
p281
aa(lp282
I2
aF97.243002891540527
aS'right'
p283
aa(lp284
I2
aF98.393917083740234
aS'left'
p285
aa(lp286
I2
aF101.81289100646973
aS'right'
p287
aa(lp288
I2
aF106.23414301872253
aS'left'
p289
aa(lp290
I2
aF111.15495991706848
aS'right'
p291
aa(lp292
I2
aF113.00641703605652
aS'left'
p293
aa(lp294
I2
aF114.40702295303345
aS'right'
p295
aa(lp296
I2
aF115.97503709793091
aS'right'
p297
aa(lp298
I2
aF116.99257588386536
aS'left'
p299
aas.