(dp1
S'responses'
p2
(lp3
(lp4
I0
aF2.0356318950653076
aS'left'
p5
aa(lp6
I0
aF2.6016459465026855
aS'right'
p7
aa(lp8
I0
aF3.5369617938995361
aS'left'
p9
aa(lp10
I0
aF4.7208149433135986
aS'right'
p11
aa(lp12
I0
aF5.8381137847900391
aS'left'
p13
aa(lp14
I0
aF7.4568648338317871
aS'right'
p15
aa(lp16
I0
aF9.7581658363342285
aS'left'
p17
aa(lp18
I0
aF12.077682018280029
aS'right'
p19
aa(lp20
I0
aF14.212502002716064
aS'left'
p21
aa(lp22
I0
aF15.980457782745361
aS'right'
p23
aa(lp24
I0
aF17.448136806488037
aS'left'
p25
aa(lp26
I0
aF21.318588018417358
aS'right'
p27
aa(lp28
I0
aF22.887450933456421
aS'left'
p29
aa(lp30
I0
aF27.640681982040405
aS'right'
p31
aa(lp32
I0
aF29.575467824935913
aS'right'
p33
aa(lp34
I0
aF30.99371600151062
aS'left'
p35
aa(lp36
I0
aF32.879333972930908
aS'right'
p37
aa(lp38
I0
aF33.96289587020874
aS'left'
p39
aa(lp40
I0
aF38.517844915390015
aS'right'
p41
aa(lp42
I0
aF41.436381816864014
aS'left'
p43
aa(lp44
I0
aF44.989480018615723
aS'right'
p45
aa(lp46
I0
aF46.807965993881226
aS'left'
p47
aa(lp48
I0
aF48.409119844436646
aS'right'
p49
aa(lp50
I0
aF49.559984922409058
aS'left'
p51
aa(lp52
I0
aF52.879849910736084
aS'left'
p53
aa(lp54
I0
aF55.265097856521606
aS'right'
p55
aa(lp56
I0
aF58.218667984008789
aS'left'
p57
aa(lp58
I0
aF60.553560972213745
aS'right'
p59
aa(lp60
I0
aF61.554602861404419
aS'left'
p61
aa(lp62
I0
aF66.325172901153564
aS'right'
p63
aa(lp64
I0
aF67.826566934585571
aS'left'
p65
aa(lp66
I0
aF68.944567918777466
aS'right'
p67
aa(lp68
I0
aF70.512679815292358
aS'left'
p69
aa(lp70
I0
aF71.796497821807861
aS'right'
p71
aa(lp72
I0
aF73.182176828384399
aS'left'
p73
aa(lp74
I0
aF74.382708787918091
aS'right'
p75
aa(lp76
I0
aF75.366450786590576
aS'left'
p77
aa(lp78
I0
aF76.618088960647583
aS'right'
p79
aa(lp80
I0
aF77.652110815048218
aS'left'
p81
aa(lp82
I0
aF83.190940856933594
aS'right'
p83
aa(lp84
I0
aF85.626298904418945
aS'left'
p85
aa(lp86
I0
aF87.294279813766479
aS'right'
p87
aa(lp88
I0
aF88.328390836715698
aS'left'
p89
aa(lp90
I0
aF92.398038864135742
aS'right'
p91
aa(lp92
I0
aF94.650190830230713
aS'left'
p93
aa(lp94
I0
aF96.452026844024658
aS'right'
p95
aa(lp96
I0
aF98.537743806838989
aS'left'
p97
aa(lp98
I0
aF102.24041080474854
aS'right'
p99
aa(lp100
I0
aF107.46168899536133
aS'left'
p101
aa(lp102
I0
aF110.13131880760193
aS'right'
p103
aa(lp104
I0
aF112.0829029083252
aS'left'
p105
aa(lp106
I0
aF116.63668394088745
aS'right'
p107
aa(lp108
I0
aF118.73824095726013
aS'left'
p109
aa(lp110
I1
aF0.94698405265808105
aS'right'
p111
aa(lp112
I1
aF3.1495540142059326
aS'left'
p113
aa(lp114
I1
aF4.0168650150299072
aS'right'
p115
aa(lp116
I1
aF5.2011260986328125
aS'left'
p117
aa(lp118
I1
aF7.9706900119781494
aS'right'
p119
aa(lp120
I1
aF9.9552111625671387
aS'left'
p121
aa(lp122
I1
aF11.339465141296387
aS'right'
p123
aa(lp124
I1
aF14.39225697517395
aS'left'
p125
aa(lp126
I1
aF15.944270133972168
aS'right'
p127
aa(lp128
I1
aF18.079226016998291
aS'left'
p129
aa(lp130
I1
aF19.981089115142822
aS'right'
p131
aa(lp132
I1
aF21.749330997467041
aS'left'
p133
aa(lp134
I1
aF24.601426124572754
aS'right'
p135
aa(lp136
I1
aF29.339847087860107
aS'left'
p137
aa(lp138
I1
aF32.008592128753662
aS'right'
p139
aa(lp140
I1
aF33.159735202789307
aS'left'
p141
aa(lp142
I1
aF34.927855014801025
aS'left'
p143
aa(lp144
I1
aF36.379244089126587
aS'right'
p145
aa(lp146
I1
aF38.430382013320923
aS'left'
p147
aa(lp148
I1
aF40.132099151611328
aS'right'
p149
aa(lp150
I1
aF45.770076036453247
aS'left'
p151
aa(lp152
I1
aF48.622790098190308
aS'right'
p153
aa(lp154
I1
aF49.891144990921021
aS'left'
p155
aa(lp156
I1
aF52.242593050003052
aS'right'
p157
aa(lp158
I1
aF54.361675977706909
aS'left'
p159
aa(lp160
I1
aF56.3126380443573
aS'right'
p161
aa(lp162
I1
aF57.163587093353271
aS'left'
p163
aa(lp164
I1
aF58.748772144317627
aS'left'
p165
aa(lp166
I1
aF60.516499996185303
aS'right'
p167
aa(lp168
I1
aF62.735764980316162
aS'left'
p169
aa(lp170
I1
aF64.020430088043213
aS'right'
p171
aa(lp172
I1
aF65.021520137786865
aS'left'
p173
aa(lp174
I1
aF67.606728076934814
aS'right'
p175
aa(lp176
I1
aF68.874091148376465
aS'left'
p177
aa(lp178
I1
aF73.862016201019287
aS'right'
p179
aa(lp180
I1
aF75.147039175033569
aS'left'
p181
aa(lp182
I1
aF77.148071050643921
aS'right'
p183
aa(lp184
I1
aF78.299118041992188
aS'left'
p185
aa(lp186
I1
aF83.837491035461426
aS'right'
p187
aa(lp188
I1
aF85.455414056777954
aS'left'
p189
aa(lp190
I1
aF89.058574199676514
aS'right'
p191
aa(lp192
I1
aF91.344552040100098
aS'left'
p193
aa(lp194
I1
aF92.361854076385498
aS'right'
p195
aa(lp196
I1
aF95.398339033126831
aS'left'
p197
aa(lp198
I1
aF99.084274053573608
aS'right'
p199
aa(lp200
I1
aF101.48678708076477
aS'left'
p201
aa(lp202
I1
aF104.438884973526
aS'right'
p203
aa(lp204
I1
aF108.50985407829285
aS'left'
p205
aa(lp206
I1
aF110.07767009735107
aS'right'
p207
aa(lp208
I1
aF112.51347398757935
aS'left'
p209
aa(lp210
I1
aF114.16511797904968
aS'right'
p211
aa(lp212
I1
aF114.94850420951843
aS'left'
p213
aa(lp214
I2
aF0.83099985122680664
aS'left'
p215
aa(lp216
I2
aF4.3168737888336182
aS'right'
p217
aa(lp218
I2
aF5.4853179454803467
aS'left'
p219
aa(lp220
I2
aF6.7530868053436279
aS'right'
p221
aa(lp222
I2
aF7.6198129653930664
aS'left'
p223
aa(lp224
I2
aF11.15708589553833
aS'left'
p225
aa(lp226
I2
aF13.307938814163208
aS'right'
p227
aa(lp228
I2
aF17.962925910949707
aS'left'
p229
aa(lp230
I2
aF20.398468017578125
aS'right'
p231
aa(lp232
I2
aF22.300194978713989
aS'left'
p233
aa(lp234
I2
aF25.752314805984497
aS'right'
p235
aa(lp236
I2
aF27.020463943481445
aS'left'
p237
aa(lp238
I2
aF33.876709938049316
aS'right'
p239
aa(lp240
I2
aF35.944677829742432
aS'left'
p241
aa(lp242
I2
aF38.931322813034058
aS'right'
p243
aa(lp244
I2
aF42.601226806640625
aS'left'
p245
aa(lp246
I2
aF48.173069953918457
aS'left'
p247
aa(lp248
I2
aF50.891377925872803
aS'right'
p249
aa(lp250
I2
aF53.210644960403442
aS'left'
p251
aa(lp252
I2
aF54.010516881942749
aS'right'
p253
aa(lp254
I2
aF55.696712017059326
aS'right'
p255
aa(lp256
I2
aF57.030303001403809
aS'left'
p257
aa(lp258
I2
aF59.88326096534729
aS'right'
p259
aa(lp260
I2
aF61.050880908966064
aS'left'
p261
aa(lp262
I2
aF62.135092973709106
aS'right'
p263
aa(lp264
I2
aF64.369992017745972
aS'left'
p265
aa(lp266
I2
aF65.270991802215576
aS'right'
p267
aa(lp268
I2
aF65.972211837768555
aS'left'
p269
aa(lp270
I2
aF68.057341814041138
aS'right'
p271
aa(lp272
I2
aF69.542004823684692
aS'left'
p273
aa(lp274
I2
aF71.627267837524414
aS'right'
p275
aa(lp276
I2
aF77.215439796447754
aS'left'
p277
aa(lp278
I2
aF78.599093914031982
aS'right'
p279
aa(lp280
I2
aF84.070491790771484
aS'left'
p281
aa(lp282
I2
aF92.394835948944092
aS'right'
p283
aa(lp284
I2
aF96.815503835678101
aS'left'
p285
aa(lp286
I2
aF99.601255893707275
aS'right'
p287
aa(lp288
I2
aF105.55660200119019
aS'left'
p289
aa(lp290
I2
aF106.74091100692749
aS'right'
p291
aa(lp292
I2
aF112.16300201416016
aS'left'
p293
aas.