(dp1
S'responses'
p2
(lp3
(lp4
I-1
aF2.0390751361846924
aS'right'
p5
aa(lp6
I-1
aF14.299708127975464
aS'left'
p7
aa(lp8
I-1
aF20.705654144287109
aS'right'
p9
aa(lp10
I0
aF1.4927361011505127
aS'right'
p11
aa(lp12
I0
aF12.336112976074219
aS'left'
p13
aa(lp14
I0
aF21.610976934432983
aS'right'
p15
aa(lp16
I0
aF35.189564943313599
aS'left'
p17
aa(lp18
I0
aF55.156625986099243
aS'right'
p19
aa(lp20
I0
aF58.709945917129517
aS'left'
p21
aa(lp22
I0
aF65.548952102661133
aS'right'
p23
aa(lp24
I0
aF68.98536205291748
aS'left'
p25
aa(lp26
I0
aF70.087196111679077
aS'right'
p27
aa(lp28
I0
aF79.01091194152832
aS'left'
p29
aa(lp30
I0
aF87.768182992935181
aS'right'
p31
aa(lp32
I0
aF98.711304903030396
aS'right'
p33
aa(lp34
I0
aF101.73110008239746
aS'left'
p35
aa(lp36
I0
aF113.32442307472229
aS'left'
p37
aas.