(dp1
S'responses'
p2
(lp3
(lp4
I-1
aF1.9442360401153564
aS'right'
p5
aa(lp6
I-1
aF20.192844152450562
aS'left'
p7
aa(lp8
I0
aF3.1141049861907959
aS'left'
p9
aa(lp10
I0
aF73.410753965377808
aS'right'
p11
aas.