(dp1
S'responses'
p2
(lp3
(lp4
I-1
aF1.1865861415863037
aS'left'
p5
aa(lp6
I-1
aF2.3539800643920898
aS'right'
p7
aa(lp8
I-1
aF3.821397066116333
aS'left'
p9
aa(lp10
I-1
aF7.4579970836639404
aS'right'
p11
aa(lp12
I-1
aF9.8933360576629639
aS'left'
p13
aa(lp14
I-1
aF11.478257179260254
aS'right'
p15
aa(lp16
I-1
aF13.029734134674072
aS'left'
p17
aa(lp18
I-1
aF14.313666105270386
aS'right'
p19
aa(lp20
I-1
aF15.581954002380371
aS'left'
p21
aa(lp22
I-1
aF18.20079517364502
aS'right'
p23
aa(lp24
I-1
aF19.785531044006348
aS'left'
p25
aa(lp26
I-1
aF21.053377151489258
aS'right'
p27
aa(lp28
I0
aF0.78918600082397461
aS'right'
p29
aa(lp30
I0
aF8.0452470779418945
aS'left'
p31
aa(lp32
I0
aF9.2300329208374023
aS'right'
p33
aa(lp34
I0
aF11.881978988647461
aS'left'
p35
aa(lp36
I0
aF13.116432905197144
aS'right'
p37
aa(lp38
I0
aF14.234902858734131
aS'left'
p39
aa(lp40
I0
aF15.301562070846558
aS'right'
p41
aa(lp42
I0
aF18.120948076248169
aS'left'
p43
aa(lp44
I0
aF19.305014848709106
aS'right'
p45
aa(lp46
I0
aF23.609654903411865
aS'left'
p47
aa(lp48
I0
aF24.860974073410034
aS'right'
p49
aa(lp50
I0
aF26.061956882476807
aS'left'
p51
aa(lp52
I0
aF27.262750864028931
aS'right'
p53
aa(lp54
I0
aF30.215185880661011
aS'left'
p55
aa(lp56
I0
aF31.18264102935791
aS'right'
p57
aa(lp58
I0
aF32.217021942138672
aS'left'
p59
aa(lp60
I0
aF36.687499046325684
aS'right'
p61
aa(lp62
I0
aF37.872025966644287
aS'left'
p63
aa(lp64
I0
aF38.706353902816772
aS'right'
p65
aa(lp66
I0
aF40.557419061660767
aS'left'
p67
aa(lp68
I0
aF43.460165023803711
aS'right'
p69
aa(lp70
I0
aF46.012691020965576
aS'left'
p71
aa(lp72
I0
aF47.313978910446167
aS'right'
p73
aa(lp74
I0
aF49.765612840652466
aS'left'
p75
aa(lp76
I0
aF50.917346000671387
aS'right'
p77
aa(lp78
I0
aF52.83560585975647
aS'left'
p79
aa(lp80
I0
aF54.036557912826538
aS'right'
p81
aa(lp82
I0
aF55.904222965240479
aS'left'
p83
aa(lp84
I0
aF57.02297306060791
aS'right'
p85
aa(lp86
I0
aF58.223187923431396
aS'left'
p87
aa(lp88
I0
aF59.808280944824219
aS'right'
p89
aa(lp90
I0
aF61.776272058486938
aS'left'
p91
aa(lp92
I0
aF62.944061040878296
aS'right'
p93
aa(lp94
I0
aF64.279291868209839
aS'left'
p95
aa(lp96
I0
aF65.963451862335205
aS'right'
p97
aa(lp98
I0
aF67.048480987548828
aS'left'
p99
aa(lp100
I0
aF68.249312877655029
aS'right'
p101
aa(lp102
I0
aF70.334117889404297
aS'left'
p103
aa(lp104
I0
aF72.185656070709229
aS'right'
p105
aa(lp106
I0
aF73.987768888473511
aS'left'
p107
aa(lp108
I0
aF74.587700843811035
aS'right'
p109
aa(lp110
I0
aF75.956076860427856
aS'left'
p111
aa(lp112
I0
aF76.906424045562744
aS'right'
p113
aa(lp114
I0
aF78.17435884475708
aS'left'
p115
aa(lp116
I0
aF80.843854904174805
aS'right'
p117
aa(lp118
I0
aF82.66167688369751
aS'left'
p119
aa(lp120
I0
aF83.963363885879517
aS'right'
p121
aa(lp122
I0
aF85.29720401763916
aS'left'
p123
aa(lp124
I0
aF87.650290966033936
aS'left'
p125
aa(lp126
I0
aF89.500824928283691
aS'right'
p127
aa(lp128
I0
aF91.702692031860352
aS'left'
p129
aa(lp130
I0
aF94.672827005386353
aS'right'
p131
aa(lp132
I0
aF95.939857959747314
aS'left'
p133
aa(lp134
I0
aF97.358211040496826
aS'right'
p135
aa(lp136
I0
aF98.87667989730835
aS'left'
p137
aa(lp138
I0
aF110.85349893569946
aS'right'
p139
aa(lp140
I0
aF111.83741307258606
aS'left'
p141
aa(lp142
I0
aF113.3888840675354
aS'right'
p143
aa(lp144
I0
aF114.92358803749084
aS'left'
p145
aa(lp146
I0
aF116.69148302078247
aS'right'
p147
aa(lp148
I0
aF117.84331798553467
aS'left'
p149
aa(lp150
I0
aF119.16125202178955
aS'right'
p151
aas.