(dp1
S'responses'
p2
(lp3
(lp4
I-1
aF2.3998510837554932
aS'right'
p5
aa(lp6
I-1
aF14.860225200653076
aS'left'
p7
aa(lp8
I-1
aF22.667162179946899
aS'right'
p9
aa(lp10
I0
aF1.9867279529571533
aS'right'
p11
aa(lp12
I0
aF14.34711217880249
aS'left'
p13
aa(lp14
I0
aF23.405200958251953
aS'right'
p15
aa(lp16
I0
aF32.362854957580566
aS'left'
p17
aa(lp18
I0
aF40.453665971755981
aS'right'
p19
aa(lp20
I0
aF42.905189990997314
aS'left'
p21
aa(lp22
I0
aF50.979236125946045
aS'right'
p23
aa(lp24
I0
aF60.837017059326172
aS'right'
p25
aa(lp26
I0
aF61.570791959762573
aS'left'
p27
aa(lp28
I0
aF70.09436297416687
aS'right'
p29
aa(lp30
I0
aF78.818808078765869
aS'left'
p31
aa(lp32
I0
aF86.292936086654663
aS'right'
p33
aa(lp34
I0
aF90.14476203918457
aS'left'
p35
aa(lp36
I0
aF93.832035064697266
aS'right'
p37
aa(lp38
I0
aF99.220255136489868
aS'left'
p39
aa(lp40
I0
aF109.66158604621887
aS'left'
p41
aa(lp42
I0
aF114.14893102645874
aS'right'
p43
aas.