(dp1
S'responses'
p2
(lp3
(lp4
I0
aF2.0142960548400879
aS'left'
p5
aa(lp6
I0
aF3.2326459884643555
aS'left'
p7
aa(lp8
I0
aF4.8004980087280273
aS'left'
p9
aa(lp10
I0
aF6.8358879089355469
aS'left'
p11
aa(lp12
I0
aF8.9869530200958252
aS'right'
p13
aa(lp14
I0
aF10.672550916671753
aS'right'
p15
aa(lp16
I0
aF12.60736608505249
aS'right'
p17
aa(lp18
I0
aF13.625274896621704
aS'left'
p19
aa(lp20
I0
aF14.926738977432251
aS'left'
p21
aa(lp22
I0
aF17.094537973403931
aS'left'
p23
aa(lp24
I0
aF17.144221067428589
aS'right'
p25
aa(lp26
I0
aF18.813108921051025
aS'left'
p27
aa(lp28
I0
aF20.89824390411377
aS'left'
p29
aa(lp30
I0
aF21.965248107910156
aS'right'
p31
aa(lp32
I0
aF22.982544898986816
aS'left'
p33
aa(lp34
I0
aF24.217825889587402
aS'right'
p35
aa(lp36
I0
aF25.685991048812866
aS'right'
p37
aa(lp38
I0
aF27.002887010574341
aS'right'
p39
aa(lp40
I0
aF27.754148960113525
aS'right'
p41
aa(lp42
I0
aF28.671133995056152
aS'right'
p43
aa(lp44
I0
aF36.725537061691284
aS'right'
p45
aa(lp46
I0
aF37.460036039352417
aS'right'
p47
aa(lp48
I0
aF38.244066953659058
aS'left'
p49
aa(lp50
I0
aF40.029608964920044
aS'left'
p51
aa(lp52
I0
aF41.94717001914978
aS'left'
p53
aa(lp54
I0
aF43.549211978912354
aS'right'
p55
aa(lp56
I0
aF44.716572999954224
aS'right'
p57
aa(lp58
I0
aF47.986690998077393
aS'right'
p59
aa(lp60
I0
aF50.338603019714355
aS'left'
p61
aa(lp62
I0
aF52.489727020263672
aS'left'
p63
aa(lp64
I0
aF53.974250078201294
aS'left'
p65
aa(lp66
I0
aF56.477473974227905
aS'left'
p67
aa(lp68
I0
aF57.728883981704712
aS'right'
p69
aa(lp70
I0
aF59.145869970321655
aS'left'
p71
aa(lp72
I0
aF60.964035034179688
aS'left'
p73
aa(lp74
I0
aF62.966339111328125
aS'left'
p75
aa(lp76
I0
aF65.335284948348999
aS'right'
p77
aa(lp78
I0
aF66.685890913009644
aS'right'
p79
aa(lp80
I0
aF68.3542160987854
aS'right'
p81
aa(lp82
I0
aF71.657727956771851
aS'left'
p83
aa(lp84
I0
aF73.475523948669434
aS'left'
p85
aa(lp86
I0
aF74.927052974700928
aS'left'
p87
aa(lp88
I0
aF76.561333894729614
aS'left'
p89
aa(lp90
I0
aF78.146788120269775
aS'left'
p91
aa(lp92
I0
aF79.731471061706543
aS'left'
p93
aa(lp94
I0
aF81.749874114990234
aS'left'
p95
aa(lp96
I0
aF83.134613990783691
aS'right'
p97
aa(lp98
I0
aF84.60193395614624
aS'right'
p99
aa(lp100
I0
aF86.404181003570557
aS'right'
p101
aa(lp102
I0
aF87.555114984512329
aS'right'
p103
aa(lp104
I0
aF89.656933069229126
aS'right'
p105
aa(lp106
I0
aF95.428328990936279
aS'left'
p107
aa(lp108
I0
aF97.3472580909729
aS'left'
p109
aa(lp110
I0
aF99.315789937973022
aS'left'
p111
aa(lp112
I0
aF100.86639595031738
aS'left'
p113
aa(lp114
I0
aF102.70149207115173
aS'left'
p115
aa(lp116
I0
aF104.92018890380859
aS'left'
p117
aa(lp118
I0
aF107.50567197799683
aS'left'
p119
aa(lp120
I0
aF109.20732998847961
aS'right'
p121
aa(lp122
I0
aF117.71521711349487
aS'left'
p123
aa(lp124
I0
aF118.78253507614136
aS'left'
p125
aa(lp126
I0
aF119.95046210289001
aS'left'
p127
aa(lp128
I1
aF2.1180219650268555
aS'left'
p129
aa(lp130
I1
aF4.4708149433135986
aS'left'
p131
aa(lp132
I1
aF6.3894329071044922
aS'left'
p133
aa(lp134
I1
aF8.2736530303955078
aS'right'
p135
aa(lp136
I1
aF9.7585799694061279
aS'right'
p137
aa(lp138
I1
aF12.427402019500732
aS'right'
p139
aa(lp140
I1
aF14.312853097915649
aS'right'
p141
aa(lp142
I1
aF15.930426120758057
aS'right'
p143
aa(lp144
I1
aF18.349076986312866
aS'right'
p145
aa(lp146
I1
aF21.703087091445923
aS'right'
p147
aa(lp148
I1
aF23.437145948410034
aS'right'
p149
aa(lp150
I1
aF24.638298034667969
aS'right'
p151
aa(lp152
I1
aF25.856060028076172
aS'right'
p153
aa(lp154
I1
aF27.141263961791992
aS'right'
p155
aa(lp156
I1
aF28.558305025100708
aS'right'
p157
aa(lp158
I1
aF30.276228904724121
aS'right'
p159
aa(lp160
I1
aF32.161852121353149
aS'right'
p161
aa(lp162
I1
aF33.246407032012939
aS'left'
p163
aa(lp164
I1
aF34.581048011779785
aS'left'
p165
aa(lp166
I1
aF35.681777000427246
aS'left'
p167
aa(lp168
I1
aF37.266036987304688
aS'left'
p169
aa(lp170
I1
aF38.868420124053955
aS'left'
p171
aa(lp172
I1
aF40.919639110565186
aS'right'
p173
aa(lp174
I1
aF41.854509115219116
aS'right'
p175
aa(lp176
I1
aF42.888175964355469
aS'right'
p177
aa(lp178
I1
aF44.206023931503296
aS'right'
p179
aa(lp180
I1
aF45.724111080169678
aS'right'
p181
aa(lp182
I1
aF47.525449991226196
aS'right'
p183
aa(lp184
I1
aF48.443166017532349
aS'right'
p185
aa(lp186
I1
aF49.611274003982544
aS'right'
p187
aa(lp188
I1
aF50.844926118850708
aS'right'
p189
aa(lp190
I1
aF51.846776962280273
aS'right'
p191
aa(lp192
I1
aF53.013577938079834
aS'right'
p193
aa(lp194
I1
aF53.981177091598511
aS'left'
p195
aa(lp196
I1
aF55.332163095474243
aS'left'
p197
aa(lp198
I1
aF56.61663293838501
aS'left'
p199
aa(lp200
I1
aF57.885381937026978
aS'right'
p201
aa(lp202
I1
aF60.053307056427002
aS'left'
p203
aa(lp204
I1
aF61.354521036148071
aS'left'
p205
aa(lp206
I1
aF61.704694986343384
aS'right'
p207
aa(lp208
I1
aF62.505990028381348
aS'right'
p209
aa(lp210
I1
aF63.823262929916382
aS'right'
p211
aa(lp212
I1
aF64.540442943572998
aS'right'
p213
aa(lp214
I1
aF66.775893926620483
aS'right'
p215
aa(lp216
I1
aF68.844501972198486
aS'right'
p217
aa(lp218
I1
aF70.996289968490601
aS'right'
p219
aa(lp220
I1
aF72.782043933868408
aS'right'
p221
aa(lp222
I1
aF74.49927806854248
aS'right'
p223
aa(lp224
I1
aF76.051814079284668
aS'right'
p225
aa(lp226
I1
aF77.552603006362915
aS'right'
p227
aa(lp228
I1
aF79.671224117279053
aS'right'
p229
aa(lp230
I1
aF81.172897100448608
aS'right'
p231
aa(lp232
I1
aF82.073499917984009
aS'left'
p233
aa(lp234
I1
aF83.35829496383667
aS'left'
p235
aa(lp236
I1
aF85.258822917938232
aS'left'
p237
aa(lp238
I1
aF88.879467010498047
aS'left'
p239
aa(lp240
I1
aF90.513288021087646
aS'left'
p241
aa(lp242
I1
aF92.248546123504639
aS'left'
p243
aa(lp244
I1
aF92.316189050674438
aS'right'
p245
aa(lp246
I1
aF93.366831064224243
aS'left'
p247
aa(lp248
I1
aF95.385318040847778
aS'left'
p249
aa(lp250
I1
aF97.503987073898315
aS'left'
p251
aa(lp252
I1
aF99.421577930450439
aS'left'
p253
aa(lp254
I1
aF99.755826950073242
aS'right'
p255
aa(lp256
I1
aF101.10733199119568
aS'right'
p257
aa(lp258
I1
aF102.92537093162537
aS'right'
p259
aa(lp260
I1
aF104.7431480884552
aS'right'
p261
aa(lp262
I1
aF105.52762699127197
aS'right'
p263
aa(lp264
I1
aF106.87949013710022
aS'right'
p265
aa(lp266
I1
aF109.19703793525696
aS'right'
p267
aa(lp268
I1
aF110.9651460647583
aS'right'
p269
aa(lp270
I1
aF112.76691508293152
aS'right'
p271
aa(lp272
I1
aF114.48530006408691
aS'right'
p273
aa(lp274
I1
aF116.57100200653076
aS'right'
p275
aa(lp276
I1
aF117.87139391899109
aS'right'
p277
aa(lp278
I1
aF119.75679492950439
aS'right'
p279
aa(lp280
I2
aF1.4849960803985596
aS'right'
p281
aa(lp282
I2
aF3.3537499904632568
aS'right'
p283
aa(lp284
I2
aF5.488685131072998
aS'right'
p285
aa(lp286
I2
aF6.9572291374206543
aS'right'
p287
aa(lp288
I2
aF8.257810115814209
aS'right'
p289
aa(lp290
I2
aF9.7600100040435791
aS'right'
p291
aa(lp292
I2
aF11.611560106277466
aS'right'
p293
aa(lp294
I2
aF13.212325096130371
aS'right'
p295
aa(lp296
I2
aF14.947142124176025
aS'right'
p297
aa(lp298
I2
aF17.03315806388855
aS'right'
p299
aa(lp300
I2
aF18.450051069259644
aS'right'
p301
aa(lp302
I2
aF19.65174412727356
aS'left'
p303
aa(lp304
I2
aF20.819538116455078
aS'left'
p305
aa(lp306
I2
aF22.287114143371582
aS'left'
p307
aa(lp308
I2
aF23.889244079589844
aS'left'
p309
aa(lp310
I2
aF25.907699108123779
aS'left'
p311
aa(lp312
I2
aF27.658768177032471
aS'left'
p313
aa(lp314
I2
aF29.376796007156372
aS'right'
p315
aa(lp316
I2
aF31.278426170349121
aS'right'
p317
aa(lp318
I2
aF33.01329517364502
aS'right'
p319
aa(lp320
I2
aF34.314963102340698
aS'right'
p321
aa(lp322
I2
aF35.498775959014893
aS'right'
p323
aa(lp324
I2
aF35.766232967376709
aS'left'
p325
aa(lp326
I2
aF36.883752107620239
aS'left'
p327
aa(lp328
I2
aF38.535454988479614
aS'left'
p329
aa(lp330
I2
aF39.585934162139893
aS'left'
p331
aa(lp332
I2
aF40.736881017684937
aS'left'
p333
aa(lp334
I2
aF42.138031005859375
aS'right'
p335
aa(lp336
I2
aF43.523159980773926
aS'right'
p337
aa(lp338
I2
aF45.158424139022827
aS'left'
p339
aa(lp340
I2
aF46.576534986495972
aS'left'
p341
aa(lp342
I2
aF48.093727111816406
aS'left'
p343
aa(lp344
I2
aF49.110826969146729
aS'left'
p345
aa(lp346
I2
aF50.529514074325562
aS'left'
p347
aa(lp348
I2
aF52.047810077667236
aS'left'
p349
aa(lp350
I2
aF53.315422058105469
aS'left'
p351
aa(lp352
I2
aF54.582879066467285
aS'left'
p353
aa(lp354
I2
aF56.234580039978027
aS'right'
p355
aa(lp356
I2
aF58.15239405632019
aS'right'
p357
aa(lp358
I2
aF59.570788145065308
aS'right'
p359
aa(lp360
I2
aF61.789777040481567
aS'right'
p361
aa(lp362
I2
aF64.591230154037476
aS'right'
p363
aa(lp364
I2
aF65.408915996551514
aS'right'
p365
aa(lp366
I2
aF66.777651071548462
aS'right'
p367
aa(lp368
I2
aF67.978027105331421
aS'right'
p369
aa(lp370
I2
aF69.379911184310913
aS'right'
p371
aa(lp372
I2
aF71.481637954711914
aS'right'
p373
aa(lp374
I2
aF72.83225417137146
aS'right'
p375
aa(lp376
I2
aF74.500585079193115
aS'right'
p377
aa(lp378
I2
aF76.26844596862793
aS'right'
p379
aa(lp380
I2
aF77.66978907585144
aS'right'
p381
aa(lp382
I2
aF79.070885181427002
aS'right'
p383
aa(lp384
I2
aF80.556796073913574
aS'right'
p385
aa(lp386
I2
aF82.10730504989624
aS'right'
p387
aa(lp388
I2
aF83.742019176483154
aS'right'
p389
aa(lp390
I2
aF85.410238027572632
aS'right'
p391
aa(lp392
I2
aF87.078464984893799
aS'right'
p393
aa(lp394
I2
aF88.963135004043579
aS'right'
p395
aa(lp396
I2
aF91.449594974517822
aS'left'
p397
aa(lp398
I2
aF92.750468015670776
aS'left'
p399
aa(lp400
I2
aF94.418616056442261
aS'left'
p401
aa(lp402
I2
aF95.836714029312134
aS'left'
p403
aa(lp404
I2
aF97.538532972335815
aS'left'
p405
aa(lp406
I2
aF99.055760145187378
aS'left'
p407
aa(lp408
I2
aF100.49066400527954
aS'left'
p409
aa(lp410
I2
aF102.24215006828308
aS'left'
p411
aa(lp412
I2
aF103.67640018463135
aS'left'
p413
aa(lp414
I2
aF105.94583916664124
aS'left'
p415
aa(lp416
I2
aF107.69717907905579
aS'right'
p417
aa(lp418
I2
aF109.3484001159668
aS'right'
p419
aa(lp420
I2
aF112.1674120426178
aS'left'
p421
aa(lp422
I2
aF113.20232605934143
aS'left'
p423
aa(lp424
I2
aF114.71928000450134
aS'left'
p425
aa(lp426
I2
aF115.92126703262329
aS'left'
p427
aa(lp428
I2
aF117.68969798088074
aS'left'
p429
aas.