(dp1
S'responses'
p2
(lp3
(lp4
I0
aF1.467616081237793
aS'right'
p5
aa(lp6
I0
aF5.5546369552612305
aS'left'
p7
aa(lp8
I0
aF9.6748120784759521
aS'right'
p9
aa(lp10
I0
aF10.775516033172607
aS'left'
p11
aa(lp12
I0
aF13.511765003204346
aS'right'
p13
aa(lp14
I0
aF14.645296096801758
aS'left'
p15
aa(lp16
I0
aF18.982619047164917
aS'left'
p17
aa(lp18
I0
aF20.000714063644409
aS'right'
p19
aa(lp20
I0
aF21.786104917526245
aS'left'
p21
aa(lp22
I0
aF27.407247066497803
aS'right'
p23
aa(lp24
I0
aF34.480245113372803
aS'left'
p25
aa(lp26
I0
aF40.485797882080078
aS'right'
p27
aa(lp28
I0
aF42.287471055984497
aS'left'
p29
aa(lp30
I0
aF45.339704036712646
aS'right'
p31
aa(lp32
I0
aF50.728458881378174
aS'left'
p33
aa(lp34
I0
aF52.445498943328857
aS'right'
p35
aa(lp36
I0
aF53.297283887863159
aS'left'
p37
aa(lp38
I0
aF54.264386892318726
aS'right'
p39
aa(lp40
I0
aF58.084497928619385
aS'left'
p41
aa(lp42
I0
aF62.838330984115601
aS'right'
p43
aa(lp44
I0
aF65.424849033355713
aS'left'
p45
aa(lp46
I0
aF69.410422086715698
aS'right'
p47
aa(lp48
I0
aF77.802239894866943
aS'left'
p49
aa(lp50
I0
aF86.910459041595459
aS'right'
p51
aa(lp52
I0
aF97.852674007415771
aS'left'
p53
aa(lp54
I0
aF104.87591910362244
aS'right'
p55
aa(lp56
I0
aF106.91121196746826
aS'left'
p57
aa(lp58
I0
aF108.57864904403687
aS'right'
p59
aa(lp60
I0
aF118.27158498764038
aS'left'
p61
aas.