(dp1
S'responses'
p2
(lp3
(lp4
I0
aF10.097602128982544
aS'right'
p5
aa(lp6
I0
aF75.673027992248535
aS'left'
p7
aa(lp8
I1
aF3.7517879009246826
aS'left'
p9
aa(lp10
I1
aF97.335521936416626
aS'left'
p11
aa(lp12
I2
aF4.0692179203033447
aS'left'
p13
aas.