(dp1
S'responses'
p2
(lp3
(lp4
I0
aF1.6597990989685059
aS'left'
p5
aa(lp6
I0
aF4.2126059532165527
aS'right'
p7
aa(lp8
I0
aF9.1832950115203857
aS'left'
p9
aa(lp10
I0
aF17.490269899368286
aS'right'
p11
aa(lp12
I0
aF35.839992046356201
aS'left'
p13
aa(lp14
I0
aF48.151192903518677
aS'right'
p15
aa(lp16
I0
aF65.516239881515503
aS'left'
p17
aa(lp18
I0
aF76.77687406539917
aS'right'
p19
aa(lp20
I0
aF84.199560880661011
aS'left'
p21
aa(lp22
I0
aF92.757396936416626
aS'right'
p23
aa(lp24
I0
aF94.759458065032959
aS'left'
p25
aa(lp26
I0
aF96.193980932235718
aS'right'
p27
aa(lp28
I0
aF97.528625011444092
aS'left'
p29
aa(lp30
I0
aF98.780055999755859
aS'right'
p31
aa(lp32
I0
aF100.03044605255127
aS'left'
p33
aa(lp34
I0
aF101.34891390800476
aS'right'
p35
aa(lp36
I0
aF102.56648707389832
aS'left'
p37
aa(lp38
I0
aF104.56768608093262
aS'right'
p39
aa(lp40
I0
aF106.15239691734314
aS'left'
p41
aa(lp42
I0
aF107.75425004959106
aS'right'
p43
aa(lp44
I0
aF111.12328100204468
aS'left'
p45
aa(lp46
I0
aF113.09224605560303
aS'right'
p47
aa(lp48
I0
aF114.35977792739868
aS'left'
p49
aa(lp50
I0
aF115.91199803352356
aS'right'
p51
aa(lp52
I0
aF117.379075050354
aS'left'
p53
aa(lp54
I0
aF118.73030996322632
aS'right'
p55
aa(lp56
I1
aF2.9236381053924561
aS'left'
p57
aa(lp58
I1
aF4.7252311706542969
aS'right'
p59
aa(lp60
I1
aF6.2756149768829346
aS'left'
p61
aa(lp62
I1
aF7.5943331718444824
aS'right'
p63
aa(lp64
I1
aF10.096524000167847
aS'left'
p65
aa(lp66
I1
aF11.698050022125244
aS'right'
p67
aa(lp68
I1
aF12.965449094772339
aS'left'
p69
aa(lp70
I1
aF14.966868162155151
aS'right'
p71
aa(lp72
I1
aF16.251230955123901
aS'left'
p73
aa(lp74
I1
aF17.82027006149292
aS'right'
p75
aa(lp76
I1
aF19.238337993621826
aS'left'
p77
aa(lp78
I1
aF20.254917144775391
aS'right'
p79
aa(lp80
I1
aF21.390109062194824
aS'left'
p81
aa(lp82
I1
aF22.6078040599823
aS'right'
p83
aa(lp84
I1
aF23.742105007171631
aS'left'
p85
aa(lp86
I1
aF24.776425123214722
aS'right'
p87
aa(lp88
I1
aF25.826845169067383
aS'left'
p89
aa(lp90
I1
aF27.078365087509155
aS'right'
p91
aa(lp92
I1
aF28.329448938369751
aS'left'
p93
aa(lp94
I1
aF29.546579122543335
aS'right'
p95
aa(lp96
I1
aF30.547904014587402
aS'left'
p97
aa(lp98
I1
aF31.69840407371521
aS'right'
p99
aa(lp100
I1
aF32.732854127883911
aS'left'
p101
aa(lp102
I1
aF34.567657947540283
aS'right'
p103
aa(lp104
I1
aF36.15214204788208
aS'left'
p105
aa(lp106
I1
aF37.637694120407104
aS'right'
p107
aa(lp108
I1
aF39.089033126831055
aS'left'
p109
aa(lp110
I1
aF40.506054162979126
aS'right'
p111
aa(lp112
I1
aF41.840829133987427
aS'left'
p113
aa(lp114
I1
aF43.97684907913208
aS'right'
p115
aa(lp116
I1
aF45.82741904258728
aS'left'
p117
aa(lp118
I1
aF47.078763008117676
aS'right'
p119
aa(lp120
I1
aF48.630712032318115
aS'left'
p121
aa(lp122
I1
aF50.03231406211853
aS'right'
p123
aa(lp124
I1
aF51.399409055709839
aS'left'
p125
aa(lp126
I1
aF52.717507123947144
aS'right'
p127
aa(lp128
I1
aF54.001513957977295
aS'left'
p129
aa(lp130
I1
aF55.703840017318726
aS'right'
p131
aa(lp132
I1
aF56.887655973434448
aS'left'
p133
aa(lp134
I1
aF58.105277061462402
aS'right'
p135
aa(lp136
I1
aF62.910320043563843
aS'left'
p137
aa(lp138
I1
aF68.230893135070801
aS'right'
p139
aa(lp140
I1
aF70.766752004623413
aS'left'
p141
aa(lp142
I1
aF74.787588119506836
aS'right'
p143
aa(lp144
I1
aF77.10582709312439
aS'left'
p145
aa(lp146
I1
aF78.624021053314209
aS'right'
p147
aa(lp148
I1
aF80.124902009963989
aS'left'
p149
aa(lp150
I1
aF81.927041053771973
aS'right'
p151
aa(lp152
I1
aF83.978381156921387
aS'left'
p153
aa(lp154
I1
aF86.096481084823608
aS'right'
p155
aa(lp156
I1
aF90.567294120788574
aS'left'
p157
aa(lp158
I1
aF92.736911058425903
aS'right'
p159
aa(lp160
I1
aF95.688797950744629
aS'left'
p161
aa(lp162
I1
aF98.257811069488525
aS'right'
p163
aa(lp164
I1
aF101.22731709480286
aS'left'
p165
aa(lp166
I1
aF103.29583597183228
aS'right'
p167
aa(lp168
I1
aF106.18204998970032
aS'left'
p169
aa(lp170
I1
aF108.5174400806427
aS'right'
p171
aa(lp172
I1
aF110.45243096351624
aS'left'
p173
aa(lp174
I1
aF114.22182416915894
aS'right'
p175
aa(lp176
I1
aF116.22311210632324
aS'left'
p177
aa(lp178
I1
aF117.57552599906921
aS'right'
p179
aa(lp180
I1
aF118.8592369556427
aS'left'
p181
aa(lp182
I1
aF119.99437308311462
aS'right'
p183
aa(lp184
I2
aF1.1106579303741455
aS'right'
p185
aa(lp186
I2
aF2.6792809963226318
aS'left'
p187
aa(lp188
I2
aF6.0490901470184326
aS'right'
p189
aa(lp190
I2
aF8.0840420722961426
aS'left'
p191
aa(lp192
I2
aF9.6852700710296631
aS'right'
p193
aa(lp194
I2
aF11.286556959152222
aS'left'
p195
aa(lp196
I2
aF12.871624946594238
aS'right'
p197
aa(lp198
I2
aF15.473323106765747
aS'left'
p199
aa(lp200
I2
aF17.008711099624634
aS'right'
p201
aa(lp202
I2
aF18.42616605758667
aS'left'
p203
aa(lp204
I2
aF19.811088085174561
aS'right'
p205
aa(lp206
I2
aF21.162428140640259
aS'left'
p207
aa(lp208
I2
aF22.480597019195557
aS'right'
p209
aa(lp210
I2
aF23.898337125778198
aS'left'
p211
aa(lp212
I2
aF25.266298055648804
aS'right'
p213
aa(lp214
I2
aF26.48331093788147
aS'left'
p215
aa(lp216
I2
aF27.600790023803711
aS'right'
p217
aa(lp218
I2
aF28.851957082748413
aS'left'
p219
aa(lp220
I2
aF30.036879062652588
aS'right'
p221
aa(lp222
I2
aF31.387663125991821
aS'left'
p223
aa(lp224
I2
aF32.838770151138306
aS'right'
p225
aa(lp226
I2
aF34.440902948379517
aS'left'
p227
aa(lp228
I2
aF36.091689109802246
aS'right'
p229
aa(lp230
I2
aF38.460565090179443
aS'left'
p231
aa(lp232
I2
aF40.579157114028931
aS'right'
p233
aa(lp234
I2
aF42.714592933654785
aS'left'
p235
aa(lp236
I2
aF44.265661954879761
aS'right'
p237
aa(lp238
I2
aF45.717350006103516
aS'left'
p239
aa(lp240
I2
aF47.068243980407715
aS'right'
p241
aa(lp242
I2
aF48.419925928115845
aS'left'
p243
aa(lp244
I2
aF50.204169034957886
aS'right'
p245
aa(lp246
I2
aF51.839925050735474
aS'left'
p247
aa(lp248
I2
aF53.457154035568237
aS'left'
p249
aa(lp250
I2
aF54.791667938232422
aS'right'
p251
aa(lp252
I2
aF56.460514068603516
aS'left'
p253
aa(lp254
I2
aF57.827539920806885
aS'right'
p255
aa(lp256
I2
aF59.179631948471069
aS'left'
p257
aa(lp258
I2
aF61.081429958343506
aS'right'
p259
aa(lp260
I2
aF63.800312042236328
aS'left'
p261
aa(lp262
I2
aF65.434808015823364
aS'right'
p263
aa(lp264
I2
aF67.252821922302246
aS'left'
p265
aa(lp266
I2
aF69.187917947769165
aS'right'
p267
aa(lp268
I2
aF71.022971153259277
aS'left'
p269
aa(lp270
I2
aF73.491402149200439
aS'right'
p271
aa(lp272
I2
aF75.34365701675415
aS'left'
p273
aa(lp274
I2
aF76.994668006896973
aS'right'
p275
aa(lp276
I2
aF78.545867919921875
aS'left'
p277
aa(lp278
I2
aF79.914058923721313
aS'right'
p279
aa(lp280
I2
aF85.503009080886841
aS'left'
p281
aa(lp282
I2
aF88.088675975799561
aS'right'
p283
aa(lp284
I2
aF90.790523052215576
aS'left'
p285
aa(lp286
I2
aF93.393357038497925
aS'right'
p287
aa(lp288
I2
aF95.361410140991211
aS'left'
p289
aa(lp290
I2
aF97.34640097618103
aS'right'
p291
aa(lp292
I2
aF99.197848081588745
aS'left'
p293
aa(lp294
I2
aF101.23386812210083
aS'right'
p295
aa(lp296
I2
aF103.2015221118927
aS'left'
p297
aa(lp298
I2
aF105.62082505226135
aS'right'
p299
aa(lp300
I2
aF108.52323412895203
aS'left'
p301
aa(lp302
I2
aF111.59257006645203
aS'right'
p303
aa(lp304
I2
aF114.32900309562683
aS'left'
p305
aa(lp306
I2
aF116.76341605186462
aS'right'
p307
aa(lp308
I2
aF119.88353705406189
aS'left'
p309
aas.