(dp1
S'responses'
p2
(lp3
(lp4
I0
aF1.5651211738586426
aS'right'
p5
aa(lp6
I0
aF1.9820780754089355
aS'left'
p7
aa(lp8
I0
aF3.2666809558868408
aS'right'
p9
aa(lp10
I0
aF4.7849781513214111
aS'left'
p11
aa(lp12
I0
aF5.9516420364379883
aS'right'
p13
aa(lp14
I0
aF6.686392068862915
aS'left'
p15
aa(lp16
I0
aF7.5195181369781494
aS'right'
p17
aa(lp18
I0
aF8.5883951187133789
aS'left'
p19
aa(lp20
I0
aF9.8556821346282959
aS'left'
p21
aa(lp22
I0
aF10.706086158752441
aS'right'
p23
aa(lp24
I0
aF12.207321166992188
aS'right'
p25
aa(lp26
I0
aF15.093987941741943
aS'left'
p27
aa(lp28
I0
aF16.428491115570068
aS'right'
p29
aa(lp30
I0
aF18.529275178909302
aS'left'
p31
aa(lp32
I0
aF20.999176979064941
aS'left'
p33
aa(lp34
I0
aF23.684054136276245
aS'left'
p35
aa(lp36
I0
aF24.134473085403442
aS'right'
p37
aa(lp38
I0
aF25.118788003921509
aS'right'
p39
aa(lp40
I0
aF31.574288129806519
aS'left'
p41
aa(lp42
I0
aF33.14211106300354
aS'right'
p43
aa(lp44
I0
aF38.296856164932251
aS'left'
p45
aa(lp46
I0
aF41.182507991790771
aS'left'
p47
aa(lp48
I0
aF42.13416600227356
aS'right'
p49
aa(lp50
I0
aF48.973229169845581
aS'left'
p51
aa(lp52
I0
aF50.140486001968384
aS'right'
p53
aa(lp54
I0
aF52.293063163757324
aS'left'
p55
aa(lp56
I0
aF54.110946178436279
aS'left'
p57
aa(lp58
I0
aF57.34691309928894
aS'right'
p59
aa(lp60
I0
aF60.983540058135986
aS'right'
p61
aa(lp62
I0
aF62.334851026535034
aS'left'
p63
aa(lp64
I0
aF64.62015700340271
aS'right'
p65
aa(lp66
I0
aF68.373310089111328
aS'left'
p67
aa(lp68
I0
aF69.391698122024536
aS'right'
p69
aa(lp70
I0
aF70.542201042175293
aS'left'
p71
aa(lp72
I0
aF72.694231033325195
aS'right'
p73
aa(lp74
I0
aF74.562630176544189
aS'left'
p75
aa(lp76
I0
aF75.479959011077881
aS'right'
p77
aa(lp78
I0
aF76.497483015060425
aS'left'
p79
aa(lp80
I0
aF77.397567987442017
aS'right'
p81
aa(lp82
I0
aF82.852388143539429
aS'left'
p83
aa(lp84
I0
aF85.071592092514038
aS'left'
p85
aa(lp86
I0
aF87.156144142150879
aS'right'
p87
aa(lp88
I0
aF89.55888295173645
aS'left'
p89
aa(lp90
I0
aF90.992851972579956
aS'right'
p91
aa(lp92
I0
aF92.57733416557312
aS'left'
p93
aa(lp94
I0
aF95.479980945587158
aS'left'
p95
aa(lp96
I0
aF96.31456995010376
aS'right'
p97
aa(lp98
I0
aF98.633368968963623
aS'left'
p99
aa(lp100
I0
aF99.8005051612854
aS'right'
p101
aa(lp102
I0
aF103.2037570476532
aS'right'
p103
aa(lp104
I0
aF104.28775095939636
aS'left'
p105
aa(lp106
I0
aF107.50707507133484
aS'left'
p107
aa(lp108
I0
aF108.6247501373291
aS'right'
p109
aa(lp110
I0
aF111.19362902641296
aS'left'
p111
aa(lp112
I0
aF114.98136210441589
aS'left'
p113
aa(lp114
I0
aF115.6143970489502
aS'right'
p115
aa(lp116
I0
aF119.33434510231018
aS'left'
p117
aa(lp118
I1
aF1.2779800891876221
aS'left'
p119
aa(lp120
I1
aF3.095318078994751
aS'right'
p121
aa(lp122
I1
aF4.8809869289398193
aS'left'
p123
aa(lp124
I1
aF8.734065055847168
aS'left'
p125
aa(lp126
I1
aF11.519082069396973
aS'right'
p127
aa(lp128
I1
aF14.155627965927124
aS'left'
p129
aa(lp130
I1
aF15.523751974105835
aS'right'
p131
aa(lp132
I1
aF19.39307689666748
aS'left'
p133
aa(lp134
I1
aF20.427433967590332
aS'right'
p135
aa(lp136
I1
aF21.611579895019531
aS'left'
p137
aa(lp138
I1
aF23.029567956924438
aS'left'
p139
aa(lp140
I1
aF24.915328025817871
aS'right'
p141
aa(lp142
I1
aF26.782768964767456
aS'right'
p143
aa(lp144
I1
aF33.905719995498657
aS'left'
p145
aa(lp146
I1
aF38.126066923141479
aS'left'
p147
aa(lp148
I1
aF39.377042055130005
aS'right'
p149
aa(lp150
I1
aF41.095200061798096
aS'left'
p151
aa(lp152
I1
aF44.531585931777954
aS'left'
p153
aa(lp154
I1
aF45.999771118164062
aS'left'
p155
aa(lp156
I1
aF47.484577894210815
aS'right'
p157
aa(lp158
I1
aF52.004369020462036
aS'right'
p159
aa(lp160
I1
aF57.626605987548828
aS'left'
p161
aa(lp162
I1
aF59.194724082946777
aS'right'
p163
aa(lp164
I1
aF61.080312013626099
aS'left'
p165
aa(lp166
I1
aF61.997183084487915
aS'right'
p167
aa(lp168
I1
aF63.432082891464233
aS'left'
p169
aa(lp170
I1
aF64.515573024749756
aS'right'
p171
aa(lp172
I1
aF65.716598987579346
aS'left'
p173
aa(lp174
I1
aF66.684721946716309
aS'right'
p175
aa(lp176
I1
aF69.453310012817383
aS'left'
p177
aa(lp178
I1
aF70.671050071716309
aS'right'
p179
aa(lp180
I1
aF74.091800928115845
aS'left'
p181
aa(lp182
I1
aF75.225364923477173
aS'right'
p183
aa(lp184
I1
aF80.730722904205322
aS'left'
p185
aa(lp186
I1
aF82.064649105072021
aS'right'
p187
aa(lp188
I1
aF83.531985998153687
aS'left'
p189
aa(lp190
I1
aF84.617055892944336
aS'right'
p191
aa(lp192
I1
aF86.151366949081421
aS'left'
p193
aa(lp194
I1
aF87.419677019119263
aS'right'
p195
aa(lp196
I1
aF88.503050088882446
aS'left'
p197
aa(lp198
I1
aF89.821264982223511
aS'right'
p199
aa(lp200
I1
aF92.574005126953125
aS'left'
p201
aa(lp202
I1
aF94.959692001342773
aS'left'
p203
aa(lp204
I1
aF95.62625789642334
aS'right'
p205
aa(lp206
I1
aF97.661211013793945
aS'left'
p207
aa(lp208
I1
aF98.795836925506592
aS'right'
p209
aa(lp210
I1
aF100.71382689476013
aS'left'
p211
aa(lp212
I1
aF102.33192992210388
aS'right'
p213
aa(lp214
I1
aF104.43395209312439
aS'left'
p215
aa(lp216
I1
aF106.20262789726257
aS'right'
p217
aa(lp218
I1
aF107.97017097473145
aS'left'
p219
aa(lp220
I1
aF110.27293705940247
aS'left'
p221
aa(lp222
I1
aF110.94004392623901
aS'right'
p223
aa(lp224
I1
aF113.39215612411499
aS'left'
p225
aa(lp226
I1
aF114.96002411842346
aS'right'
p227
aa(lp228
I1
aF117.29559111595154
aS'left'
p229
aa(lp230
I1
aF119.08004903793335
aS'right'
p231
aa(lp232
I1
aF119.79785799980164
aS'right'
p233
aa(lp234
I2
aF1.4911348819732666
aS'right'
p235
aa(lp236
I2
aF4.4433648586273193
aS'left'
p237
aa(lp238
I2
aF6.829355001449585
aS'right'
p239
aa(lp240
I2
aF9.5818300247192383
aS'left'
p241
aa(lp242
I2
aF11.70048999786377
aS'left'
p243
aa(lp244
I2
aF12.267139911651611
aS'right'
p245
aa(lp246
I2
aF17.571485996246338
aS'left'
p247
aa(lp248
I2
aF18.923534870147705
aS'right'
p249
aa(lp250
I2
aF20.390852928161621
aS'left'
p251
aa(lp252
I2
aF24.978607892990112
aS'right'
p253
aa(lp254
I2
aF28.064285039901733
aS'right'
p255
aa(lp256
I2
aF30.500257015228271
aS'left'
p257
aa(lp258
I2
aF32.001459836959839
aS'right'
p259
aa(lp260
I2
aF34.103131055831909
aS'left'
p261
aa(lp262
I2
aF35.237311840057373
aS'right'
p263
aa(lp264
I2
aF36.555598020553589
aS'left'
p265
aa(lp266
I2
aF37.939997911453247
aS'right'
p267
aa(lp268
I2
aF40.642781972885132
aS'left'
p269
aa(lp270
I2
aF42.294105052947998
aS'left'
p271
aa(lp272
I2
aF43.444102048873901
aS'right'
p273
aa(lp274
I2
aF44.762519836425781
aS'right'
p275
aa(lp276
I2
aF45.429653882980347
aS'right'
p277
aa(lp278
I2
aF47.431650876998901
aS'right'
p279
aa(lp280
I2
aF53.919993877410889
aS'right'
p281
aa(lp282
I2
aF54.353471994400024
aS'left'
p283
aa(lp284
I2
aF57.957773923873901
aS'right'
p285
aa(lp286
I2
aF60.358739852905273
aS'left'
p287
aa(lp288
I2
aF61.777796030044556
aS'right'
p289
aa(lp290
I2
aF64.695916891098022
aS'left'
p291
aa(lp292
I2
aF68.483307838439941
aS'right'
p293
aa(lp294
I2
aF72.203289985656738
aS'left'
p295
aa(lp296
I2
aF76.706532001495361
aS'right'
p297
aa(lp298
I2
aF79.275604963302612
aS'right'
p299
aa(lp300
I2
aF82.845347881317139
aS'left'
p301
aa(lp302
I2
aF84.630415916442871
aS'right'
p303
aa(lp304
I2
aF86.682188987731934
aS'right'
p305
aa(lp306
I2
aF89.868540048599243
aS'left'
p307
aa(lp308
I2
aF93.238404989242554
aS'right'
p309
aa(lp310
I2
aF95.406343936920166
aS'left'
p311
aa(lp312
I2
aF97.107808828353882
aS'right'
p313
aa(lp314
I2
aF100.04332304000854
aS'left'
p315
aa(lp316
I2
aF101.29563498497009
aS'right'
p317
aa(lp318
I2
aF102.5630099773407
aS'left'
p319
aa(lp320
I2
aF103.49681186676025
aS'right'
p321
aa(lp322
I2
aF105.66558599472046
aS'left'
p323
aa(lp324
I2
aF107.31705784797668
aS'right'
p325
aa(lp326
I2
aF108.50110197067261
aS'left'
p327
aa(lp328
I2
aF109.76886296272278
aS'right'
p329
aa(lp330
I2
aF110.90361285209656
aS'left'
p331
aa(lp332
I2
aF112.57210898399353
aS'right'
p333
aa(lp334
I2
aF114.13933992385864
aS'left'
p335
aa(lp336
I2
aF115.40782904624939
aS'right'
p337
aa(lp338
I2
aF117.1759569644928
aS'left'
p339
aa(lp340
I2
aF118.37713289260864
aS'right'
p341
aas.