(dp1
S'responses'
p2
(lp3
(lp4
I0
aF5.1017520427703857
aS'left'
p5
aa(lp6
I0
aF22.083677053451538
aS'right'
p7
aa(lp8
I0
aF32.75978422164917
aS'right'
p9
aa(lp10
I0
aF44.003702163696289
aS'left'
p11
aa(lp12
I0
aF63.503883123397827
aS'left'
p13
aa(lp14
I0
aF71.661367177963257
aS'left'
p15
aa(lp16
I0
aF76.983297109603882
aS'right'
p17
aa(lp18
I0
aF94.147458076477051
aS'left'
p19
aa(lp20
I1
aF4.1522870063781738
aS'left'
p21
aa(lp22
I1
aF16.095979928970337
aS'right'
p23
aa(lp24
I1
aF24.553646087646484
aS'left'
p25
aa(lp26
I1
aF49.825288057327271
aS'left'
p27
aa(lp28
I1
aF66.640475034713745
aS'left'
p29
aa(lp30
I1
aF88.393641948699951
aS'right'
p31
aa(lp32
I1
aF94.298366069793701
aS'left'
p33
aa(lp34
I1
aF109.19504714012146
aS'right'
p35
aa(lp36
I2
aF1.5480141639709473
aS'right'
p37
aa(lp38
I2
aF9.9899652004241943
aS'left'
p39
aa(lp40
I2
aF25.202933073043823
aS'right'
p41
aa(lp42
I2
aF57.43146800994873
aS'left'
p43
aa(lp44
I2
aF60.234764099121094
aS'right'
p45
aa(lp46
I2
aF67.373356103897095
aS'left'
p47
aa(lp48
I2
aF77.09856915473938
aS'right'
p49
aa(lp50
I2
aF88.025917053222656
aS'left'
p51
aa(lp52
I2
aF94.697902202606201
aS'right'
p53
aa(lp54
I2
aF111.93039512634277
aS'left'
p55
aas.