(dp1
S'responses'
p2
(lp3
(lp4
I0
aF0.71010899543762207
aS'left'
p5
aa(lp6
I0
aF3.6294870376586914
aS'right'
p7
aa(lp8
I0
aF6.3984990119934082
aS'left'
p9
aa(lp10
I0
aF8.6846470832824707
aS'right'
p11
aa(lp12
I0
aF11.787408113479614
aS'left'
p13
aa(lp14
I0
aF15.923640966415405
aS'right'
p15
aa(lp16
I0
aF18.459393978118896
aS'left'
p17
aa(lp18
I0
aF20.477828979492188
aS'right'
p19
aa(lp20
I0
aF22.129542112350464
aS'left'
p21
aa(lp22
I0
aF23.830718994140625
aS'right'
p23
aa(lp24
I0
aF25.66557788848877
aS'left'
p25
aa(lp26
I0
aF27.717319011688232
aS'right'
p27
aa(lp28
I0
aF29.902667045593262
aS'left'
p29
aa(lp30
I0
aF35.791513919830322
aS'right'
p31
aa(lp32
I0
aF38.843923091888428
aS'left'
p33
aa(lp34
I0
aF41.613492012023926
aS'right'
p35
aa(lp36
I0
aF44.166177988052368
aS'left'
p37
aa(lp38
I0
aF48.418997049331665
aS'right'
p39
aa(lp40
I0
aF50.471370935440063
aS'left'
p41
aa(lp42
I0
aF51.888596057891846
aS'right'
p43
aa(lp44
I0
aF54.957880973815918
aS'left'
p45
aa(lp46
I0
aF57.160062074661255
aS'left'
p47
aa(lp48
I0
aF57.276593923568726
aS'right'
p49
aa(lp50
I0
aF58.461767911911011
aS'right'
p51
aa(lp52
I0
aF61.180897951126099
aS'left'
p53
aa(lp54
I0
aF64.033225059509277
aS'left'
p55
aa(lp56
I0
aF65.334146976470947
aS'right'
p57
aa(lp58
I0
aF66.802299976348877
aS'left'
p59
aa(lp60
I0
aF68.287136077880859
aS'right'
p61
aa(lp62
I0
aF69.971663951873779
aS'left'
p63
aa(lp64
I0
aF72.106419086456299
aS'right'
p65
aa(lp66
I0
aF73.758147001266479
aS'left'
p67
aa(lp68
I0
aF75.3593909740448
aS'right'
p69
aa(lp70
I0
aF77.945980072021484
aS'left'
p71
aa(lp72
I0
aF80.131017923355103
aS'right'
p73
aa(lp74
I0
aF82.433499097824097
aS'left'
p75
aa(lp76
I0
aF84.066989898681641
aS'right'
p77
aa(lp78
I0
aF86.168873071670532
aS'left'
p79
aa(lp80
I0
aF88.488142013549805
aS'right'
p81
aa(lp82
I0
aF91.89146900177002
aS'left'
p83
aa(lp84
I0
aF93.492508888244629
aS'right'
p85
aa(lp86
I0
aF95.978418111801147
aS'left'
p87
aa(lp88
I0
aF98.080260038375854
aS'right'
p89
aa(lp90
I0
aF102.28380608558655
aS'left'
p91
aa(lp92
I0
aF104.53523707389832
aS'right'
p93
aa(lp94
I0
aF106.28720903396606
aS'left'
p95
aa(lp96
I0
aF108.60607194900513
aS'right'
p97
aa(lp98
I0
aF110.27374291419983
aS'left'
p99
aa(lp100
I0
aF112.29205107688904
aS'right'
p101
aa(lp102
I0
aF113.64324402809143
aS'left'
p103
aa(lp104
I0
aF115.46209907531738
aS'right'
p105
aa(lp106
I0
aF117.53110504150391
aS'left'
p107
aa(lp108
I0
aF119.76519393920898
aS'right'
p109
aa(lp110
I1
aF0.93933701515197754
aS'left'
p111
aa(lp112
I1
aF3.2088069915771484
aS'right'
p113
aa(lp114
I1
aF6.0610101222991943
aS'left'
p115
aa(lp116
I1
aF7.5785651206970215
aS'right'
p117
aa(lp118
I1
aF9.247344970703125
aS'left'
p119
aa(lp120
I1
aF10.615514039993286
aS'right'
p121
aa(lp122
I1
aF12.183467149734497
aS'left'
p123
aa(lp124
I1
aF14.785177946090698
aS'right'
p125
aa(lp126
I1
aF17.821223974227905
aS'left'
p127
aa(lp128
I1
aF19.689965009689331
aS'right'
p129
aa(lp130
I1
aF21.707947969436646
aS'left'
p131
aa(lp132
I1
aF23.710613965988159
aS'right'
p133
aa(lp134
I1
aF25.928386926651001
aS'left'
p135
aa(lp136
I1
aF29.43127703666687
aS'right'
p137
aa(lp138
I1
aF32.034389972686768
aS'right'
p139
aa(lp140
I1
aF40.291824102401733
aS'left'
p141
aa(lp142
I1
aF44.845387935638428
aS'right'
p143
aa(lp144
I1
aF46.347068071365356
aS'left'
p145
aa(lp146
I1
aF51.417742013931274
aS'right'
p147
aa(lp148
I1
aF58.290658950805664
aS'left'
p149
aa(lp150
I1
aF59.842051029205322
aS'right'
p151
aa(lp152
I1
aF61.126662015914917
aS'left'
p153
aa(lp154
I1
aF65.613580942153931
aS'right'
p155
aa(lp156
I1
aF66.614771127700806
aS'right'
p157
aa(lp158
I1
aF73.871500968933105
aS'left'
p159
aa(lp160
I1
aF80.477015018463135
aS'right'
p161
aa(lp162
I1
aF85.765104055404663
aS'left'
p163
aa(lp164
I1
aF88.117202997207642
aS'right'
p165
aa(lp166
I1
aF89.935663938522339
aS'left'
p167
aa(lp168
I1
aF92.487141132354736
aS'right'
p169
aa(lp170
I1
aF94.088465929031372
aS'left'
p171
aa(lp172
I1
aF95.939924955368042
aS'right'
p173
aa(lp174
I1
aF97.992751121520996
aS'left'
p175
aa(lp176
I1
aF100.84417700767517
aS'right'
p177
aa(lp178
I1
aF102.71268200874329
aS'left'
p179
aa(lp180
I1
aF109.40250992774963
aS'right'
p181
aa(lp182
I1
aF114.52293491363525
aS'left'
p183
aa(lp184
I1
aF116.97532105445862
aS'right'
p185
aa(lp186
I1
aF118.17699408531189
aS'left'
p187
aa(lp188
I1
aF119.79448103904724
aS'right'
p189
aa(lp190
I2
aF0.95110487937927246
aS'right'
p191
aa(lp192
I2
aF10.158978939056396
aS'left'
p193
aa(lp194
I2
aF14.129879951477051
aS'right'
p195
aa(lp196
I2
aF16.064728021621704
aS'left'
p197
aa(lp198
I2
aF18.383471012115479
aS'right'
p199
aa(lp200
I2
aF23.43827486038208
aS'left'
p201
aa(lp202
I2
aF30.910631895065308
aS'right'
p203
aa(lp204
I2
aF32.2791428565979
aS'left'
p205
aa(lp206
I2
aF37.750070810317993
aS'right'
p207
aa(lp208
I2
aF49.794693946838379
aS'left'
p209
aa(lp210
I2
aF62.388645887374878
aS'right'
p211
aa(lp212
I2
aF69.911846876144409
aS'left'
p213
aa(lp214
I2
aF79.420954942703247
aS'right'
p215
aa(lp216
I2
aF87.944836854934692
aS'left'
p217
aa(lp218
I2
aF97.803355932235718
aS'right'
p219
aa(lp220
I2
aF98.153868913650513
aS'right'
p221
aa(lp222
I2
aF109.51424980163574
aS'left'
p223
aas.