(dp1
S'responses'
p2
(lp3
(lp4
I0
aF1.4821648597717285
aS'right'
p5
aa(lp6
I0
aF7.3870639801025391
aS'left'
p7
aa(lp8
I0
aF28.807004928588867
aS'right'
p9
aa(lp10
I0
aF61.852252960205078
aS'left'
p11
aa(lp12
I0
aF75.71514892578125
aS'right'
p13
aa(lp14
I0
aF91.328664064407349
aS'left'
p15
aa(lp16
I0
aF94.448729038238525
aS'right'
p17
aa(lp18
I0
aF97.567272901535034
aS'left'
p19
aa(lp20
I0
aF103.05636596679688
aS'right'
p21
aa(lp22
I0
aF105.64123582839966
aS'left'
p23
aa(lp24
I1
aF1.3647599220275879
aS'left'
p25
aa(lp26
I1
aF4.5502169132232666
aS'right'
p27
aa(lp28
I1
aF13.909225940704346
aS'left'
p29
aa(lp30
I1
aF26.2029869556427
aS'right'
p31
aa(lp32
I1
aF86.090409994125366
aS'left'
p33
aa(lp34
I1
aF112.3131148815155
aS'right'
p35
aa(lp36
I2
aF2.1261200904846191
aS'right'
p37
aa(lp38
I2
aF11.784530162811279
aS'left'
p39
aa(lp40
I2
aF78.426776170730591
aS'right'
p41
aa(lp42
I2
aF94.874686002731323
aS'left'
p43
aa(lp44
I2
aF99.428622007369995
aS'right'
p45
aa(lp46
I2
aF113.3743851184845
aS'left'
p47
aas.