(dp1
S'responses'
p2
(lp3
(lp4
I0
aF2.5653901100158691
aS'left'
p5
aa(lp6
I0
aF4.9834868907928467
aS'right'
p7
aa(lp8
I0
aF7.5193560123443604
aS'left'
p9
aa(lp10
I0
aF9.4372010231018066
aS'right'
p11
aa(lp12
I0
aF10.939614057540894
aS'left'
p13
aa(lp14
I0
aF13.607351064682007
aS'left'
p15
aa(lp16
I0
aF15.876193046569824
aS'right'
p17
aa(lp18
I0
aF23.382620096206665
aS'left'
p19
aa(lp20
I0
aF32.624396085739136
aS'right'
p21
aa(lp22
I0
aF36.309964895248413
aS'left'
p23
aa(lp24
I0
aF41.015136003494263
aS'right'
p25
aa(lp26
I0
aF51.473489046096802
aS'left'
p27
aa(lp28
I0
aF58.162373065948486
aS'right'
p29
aa(lp30
I0
aF69.504586935043335
aS'left'
p31
aa(lp32
I0
aF73.975239038467407
aS'right'
p33
aa(lp34
I0
aF78.962632894515991
aS'left'
p35
aa(lp36
I0
aF82.650151968002319
aS'right'
p37
aa(lp38
I0
aF87.987365007400513
aS'left'
p39
aa(lp40
I0
aF95.493623971939087
aS'right'
p41
aa(lp42
I0
aF115.91086101531982
aS'left'
p43
aa(lp44
I1
aF9.5136520862579346
aS'left'
p45
aa(lp46
I1
aF15.40608811378479
aS'right'
p47
aa(lp48
I1
aF20.043465137481689
aS'left'
p49
aa(lp50
I1
aF25.761130094528198
aS'right'
p51
aa(lp52
I1
aF30.718939065933228
aS'left'
p53
aa(lp54
I1
aF32.437210083007812
aS'right'
p55
aa(lp56
I1
aF41.161267995834351
aS'left'
p57
aa(lp58
I1
aF52.01617693901062
aS'right'
p59
aa(lp60
I1
aF54.205464124679565
aS'left'
p61
aa(lp62
I1
aF55.623577117919922
aS'right'
p63
aa(lp64
I1
aF62.12499213218689
aS'left'
p65
aa(lp66
I1
aF66.899513959884644
aS'right'
p67
aa(lp68
I1
aF68.413733959197998
aS'left'
p69
aa(lp70
I1
aF70.636892080307007
aS'right'
p71
aa(lp72
I1
aF73.63971996307373
aS'left'
p73
aa(lp74
I1
aF78.67261004447937
aS'right'
p75
aa(lp76
I1
aF85.965958118438721
aS'left'
p77
aa(lp78
I1
aF88.663818120956421
aS'right'
p79
aa(lp80
I2
aF1.9927880764007568
aS'right'
p81
aa(lp82
I2
aF38.857973098754883
aS'left'
p83
aa(lp84
I2
aF70.267080068588257
aS'right'
p85
aa(lp86
I2
aF111.81912302970886
aS'left'
p87
aas.